(lp0
V24-hr.
p1
aV381(a)
p2
aV50-megaton
p3
aV6-hr.
p4
aVabandoned
p5
aVabandonment
p6
aVaberrations
p7
aVability
p8
aVabout
p9
aVabove
p10
aVabroad
p11
aVabrupt
p12
aVabsence
p13
aVabsent
p14
aVabsolute
p15
aVabsolutely
p16
aVabsorbed
p17
aVabsorption
p18
aVabstract
p19
aVabstraction
p20
aVabuse
p21
aVacademic
p22
aVacademy
p23
aVaccelerate
p24
aVaccelerated
p25
aVacceleration
p26
aVaccelerometer
p27
aVaccelerometers
p28
aVaccept
p29
aVacceptable
p30
aVacceptance
p31
aVaccepted
p32
aVaccepting
p33
aVaccess
p34
aVaccident
p35
aVaccommodate
p36
aVaccompanied
p37
aVaccompaniment
p38
aVaccompany
p39
aVaccompanying
p40
aVaccomplish
p41
aVaccomplished
p42
aVaccordance
p43
aVaccording
p44
aVaccordingly
p45
aVaccount
p46
aVaccounts
p47
aVaccuracy
p48
aVaccurate
p49
aVaccurately
p50
aVaccuse
p51
aVachieve
p52
aVachieved
p53
aVachievement
p54
aVachievements
p55
aVachieving
p56
aVacknowledge
p57
aVacquire
p58
aVacquiring
p59
aVacquisition
p60
aVacres
p61
aVacross
p62
aVacted
p63
aVacting
p64
aVaction
p65
aVactions
p66
aVactivated
p67
aVactivation
p68
aVactive
p69
aVactively
p70
aVactives
p71
aVactivities
p72
aVactivity
p73
aVactor
p74
aVactors
p75
aVactual
p76
aVactually
p77
aVadaptation
p78
aVadaptations
p79
aVadapted
p80
aVadded
p81
aVaddition
p82
aVadditional
p83
aVadditions
p84
aVaddress
p85
aVaddresses
p86
aVadequate
p87
aVadequately
p88
aVadherence
p89
aVadjacent
p90
aVadjust
p91
aVadjustment
p92
aVadministration
p93
aVadministrative
p94
aVadmirable
p95
aVadmissible
p96
aVadmission
p97
aVadmit
p98
aVadmitted
p99
aVadopted
p100
aVadult
p101
aVadults
p102
aVadvance
p103
aVadvanced
p104
aVadvantage
p105
aVadvantages
p106
aVadventures
p107
aVadvertised
p108
aVadvertisers
p109
aVadvertising
p110
aVadvice
p111
aVaegean
p112
aVaerated
p113
aVaeration
p114
aVaerator
p115
aVaerosol
p116
aVaesthetic
p117
aVaffairs
p118
aVaffect
p119
aVaffected
p120
aVaffection
p121
aVaffects
p122
aVaffixed
p123
aVafford
p124
aVafraid
p125
aVafrica
p126
aVafrican
p127
aVafter
p128
aVafternoon
p129
aVagain
p130
aVagainst
p131
aVagencies
p132
aVagency
p133
aVagent
p134
aVagents
p135
aVagglutination
p136
aVagglutinin
p137
aVaggregate
p138
aVaggressive
p139
aVagree
p140
aVagreed
p141
aVagreement
p142
aVagricultural
p143
aVagriculture
p144
aVahead
p145
aVaided
p146
aVairways
p147
aValbert
p148
aValbum
p149
aValbumin
p150
aValcohol
p151
aValexander
p152
aValgae
p153
aValien
p154
aValienation
p155
aValigned
p156
aValike
p157
aValive
p158
aVall-negro
p159
aVallen
p160
aVallied
p161
aVallies
p162
aVallocation
p163
aVallow
p164
aVallowance
p165
aVallowed
p166
aVallowing
p167
aVallows
p168
aValmost
p169
aValone
p170
aValong
p171
aValpha
p172
aValready
p173
aValter
p174
aValterations
p175
aValtered
p176
aValternative
p177
aValternatives
p178
aValthough
p179
aValtogether
p180
aValuminum
p181
aValveolar
p182
aValways
p183
aVamazing
p184
aVambiguous
p185
aVambitious
p186
aVamendment
p187
aVamerica
p188
aVamerica's
p189
aVamerican
p190
aVamericans
p191
aVamong
p192
aVamount
p193
aVamounts
p194
aVample
p195
aVamplifier
p196
aVamplitude
p197
aVamusing
p198
aVanaconda
p199
aVanalogy
p200
aVanalyses
p201
aVanalysis
p202
aVanalytic
p203
aVanalytical
p204
aVanalyze
p205
aVanalyzed
p206
aVanastomoses
p207
aVancient
p208
aVandrena
p209
aVanemia
p210
aVangel
p211
aVangeles
p212
aVangels
p213
aVanger
p214
aVangle
p215
aVangles
p216
aVanglo-saxon
p217
aVangular
p218
aVanimal
p219
aVanimals
p220
aVanionic
p221
aVanniversary
p222
aVannounced
p223
aVannouncement
p224
aVannual
p225
aVanode
p226
aVanother
p227
aVanswer
p228
aVanswered
p229
aVanswers
p230
aVantagonism
p231
aVantenna
p232
aVanti-communist
p233
aVanti-party
p234
aVanti-trust
p235
aVantibodies
p236
aVantibody
p237
aVanticipated
p238
aVantigen
p239
aVantisubmarine
p240
aVantithyroid
p241
aVanxiety
p242
aVanxious
p243
aVanybody
p244
aVanyone
p245
aVanything
p246
aVanyway
p247
aVanywhere
p248
aVapart
p249
aVapartments
p250
aVaperture
p251
aVapparatus
p252
aVapparent
p253
aVapparently
p254
aVappeal
p255
aVappealing
p256
aVappeals
p257
aVappear
p258
aVappearance
p259
aVappeared
p260
aVappearing
p261
aVappears
p262
aVappendix
p263
aVappestat
p264
aVapplause
p265
aVapplicable
p266
aVapplicants
p267
aVapplication
p268
aVapplications
p269
aVapplied
p270
aVapplies
p271
aVapply
p272
aVapplying
p273
aVappointed
p274
aVappointment
p275
aVapportioned
p276
aVapportionment
p277
aVappreciably
p278
aVappreciation
p279
aVapproach
p280
aVapproached
p281
aVapproaches
p282
aVapproaching
p283
aVappropriate
p284
aVapproval
p285
aVapproved
p286
aVapproximate
p287
aVapproximately
p288
aVapproximation
p289
aVapril
p290
aVaqueous
p291
aVarbitrary
p292
aVareas
p293
aVaren't
p294
aVargon
p295
aVargue
p296
aVargued
p297
aVargues
p298
aVargument
p299
aVarguments
p300
aVarise
p301
aVarises
p302
aVarising
p303
aVarm-elevation
p304
aVarmed
p305
aVarnolphe
p306
aVarose
p307
aVaround
p308
aVaroused
p309
aVarranged
p310
aVarrangement
p311
aVarrangements
p312
aVarrival
p313
aVarrived
p314
aVarrow
p315
aVarrows
p316
aVarterial
p317
aVarteries
p318
aVartery
p319
aVartery-pulmonary
p320
aVarticle
p321
aVarticles
p322
aVartificial
p323
aVartificially
p324
aVartist
p325
aVartists
p326
aVaside
p327
aVasked
p328
aVasking
p329
aVaspect
p330
aVaspects
p331
aVassembled
p332
aVassembly
p333
aVassert
p334
aVassessment
p335
aVassets
p336
aVassign
p337
aVassigned
p338
aVassignment
p339
aVassignments
p340
aVassist
p341
aVassistance
p342
aVassistant
p343
aVassistants
p344
aVassociated
p345
aVassociation
p346
aVassociations
p347
aVassume
p348
aVassumed
p349
aVassuming
p350
aVassumption
p351
aVassumptions
p352
aVassurance
p353
aVassure
p354
aVassured
p355
aVathabascan
p356
aVatlantic
p357
aVatmosphere
p358
aVatmospheric
p359
aVatomic
p360
aVatoms
p361
aVatrophy
p362
aVattached
p363
aVattack
p364
aVattacks
p365
aVattain
p366
aVattempt
p367
aVattempted
p368
aVattempting
p369
aVattempts
p370
aVattend
p371
aVattended
p372
aVattention
p373
aVattitude
p374
aVattitudes
p375
aVattorney
p376
aVattract
p377
aVattracted
p378
aVattraction
p379
aVattractive
p380
aVattributed
p381
aVattributes
p382
aVattrition
p383
aVaudience
p384
aVaudiences
p385
aVauditors
p386
aVaugmented
p387
aVaugust
p388
aVaustralia
p389
aVauthentic
p390
aVauthenticity
p391
aVauthor
p392
aVauthorities
p393
aVauthority
p394
aVauthorized
p395
aVauthors
p396
aVautistic
p397
aVautocoder
p398
aVautocollimator
p399
aVautomatic
p400
aVautomatically
p401
aVautomobile
p402
aVautonomic
p403
aVautonomy
p404
aVautumn
p405
aVavailability
p406
aVavailable
p407
aVavenue
p408
aVaverage
p409
aVaveraged
p410
aVaverages
p411
aVavoid
p412
aVavoided
p413
aVaware
p414
aVawareness
p415
aVb'dikkat
p416
aVbabies
p417
aVbackground
p418
aVbacks
p419
aVbacteria
p420
aVbadly
p421
aVbadness
p422
aVbalafrej
p423
aVbalance
p424
aVbalanced
p425
aVballet
p426
aVbands
p427
aVbaptized
p428
aVbargaining
p429
aVbarker
p430
aVbaroque
p431
aVbarriers
p432
aVbased
p433
aVbasic
p434
aVbasically
p435
aVbasis
p436
aVbatting
p437
aVbattle
p438
aVbeach
p439
aVbearing
p440
aVbears
p441
aVbeatrice
p442
aVbeautiful
p443
aVbeautifully
p444
aVbeauty
p445
aVbecame
p446
aVbecause
p447
aVbecome
p448
aVbecomes
p449
aVbecoming
p450
aVbeebread
p451
aVbeethoven
p452
aVbefore
p453
aVbegan
p454
aVbegin
p455
aVbeginning
p456
aVbegins
p457
aVbegun
p458
aVbehalf
p459
aVbehave
p460
aVbehavior
p461
aVbehind
p462
aVbeing
p463
aVbeings
p464
aVbelief
p465
aVbeliefs
p466
aVbelieve
p467
aVbelieved
p468
aVbelieves
p469
aVbelly
p470
aVbelong
p471
aVbelonging
p472
aVbelow
p473
aVbelts
p474
aVbeneath
p475
aVbeneficial
p476
aVbenefit
p477
aVbenefits
p478
aVbeowulf
p479
aVberlin
p480
aVberman
p481
aVbeside
p482
aVbesides
p483
aVbetter
p484
aVbetween
p485
aVbeyond
p486
aVbible
p487
aVbiblical
p488
aVbidding
p489
aVbigger
p490
aVbillion
p491
aVbills
p492
aVbinding
p493
aVbinomial
p494
aVbiological
p495
aVbirds
p496
aVbirth
p497
aVbishop
p498
aVbitter
p499
aVblack
p500
aVblame
p501
aVblank
p502
aVblanket
p503
aVblaze
p504
aVblind
p505
aVblindness
p506
aVblock
p507
aVblocks
p508
aVblood
p509
aVblowing
p510
aVblues
p511
aVboard
p512
aVboards
p513
aVbodies
p514
aVbombs
p515
aVbombus
p516
aVbonds
p517
aVbones
p518
aVbooked
p519
aVbooking
p520
aVbooks
p521
aVboost
p522
aVboris
p523
aVboston
p524
aVbottom
p525
aVbounce
p526
aVbound
p527
aVboundaries
p528
aVboundary
p529
aVbrahms
p530
aVbrain
p531
aVbranch
p532
aVbranches
p533
aVbrandt
p534
aVbrandywine
p535
aVbraque
p536
aVbreak
p537
aVbreath
p538
aVbreathing
p539
aVbreeze
p540
aVbridge
p541
aVbrief
p542
aVbriefly
p543
aVbright
p544
aVbrightness
p545
aVbrilliant
p546
aVbring
p547
aVbringing
p548
aVbrings
p549
aVbritain
p550
aVbritish
p551
aVbroad
p552
aVbroadening
p553
aVbroader
p554
aVbroadway
p555
aVbroke
p556
aVbroken
p557
aVbronchial
p558
aVbronchioles
p559
aVbrood
p560
aVbrother
p561
aVbrothers
p562
aVbrought
p563
aVbrown
p564
aVbrown's
p565
aVbrumidi
p566
aVbrumidi's
p567
aVbrush
p568
aVbubble
p569
aVbubbles
p570
aVbudget
p571
aVbuffer
p572
aVbuild
p573
aVbuilder
p574
aVbuilders
p575
aVbuilding
p576
aVbuildings
p577
aVbuilds
p578
aVbuilt
p579
aVbull's-eye
p580
aVbull's-eyes
p581
aVbumblebees
p582
aVbundle
p583
aVburden
p584
aVburma
p585
aVburned
p586
aVburning
p587
aVbusily
p588
aVbusiness
p589
aVbusinesses
p590
aVbuying
p591
aVc-plane
p592
aVcabin
p593
aVcalcium
p594
aVcalculated
p595
aVcalculation
p596
aVcalculations
p597
aVcalifornia
p598
aVcalled
p599
aVcalling
p600
aVcalls
p601
aVcalories
p602
aVcampaign
p603
aVcampaigns
p604
aVcampus
p605
aVcan't
p606
aVcanada
p607
aVcandidate
p608
aVcandidates
p609
aVcannery
p610
aVcanning
p611
aVcannot
p612
aVcanon
p613
aVcanvas
p614
aVcanyon
p615
aVcapabilities
p616
aVcapable
p617
aVcapacity
p618
aVcapillary
p619
aVcapital
p620
aVcapitalism
p621
aVcapitol
p622
aVcaptain
p623
aVcaptive
p624
aVcapture
p625
aVcarbon
p626
aVcardinal
p627
aVcards
p628
aVcareer
p629
aVcareful
p630
aVcarefully
p631
aVcaribbean
p632
aVcarnegie
p633
aVcarried
p634
aVcarries
p635
aVcarry
p636
aVcarrying
p637
aVcarryover
p638
aVcarvey
p639
aVcases
p640
aVcasework
p641
aVcastro
p642
aVcasual
p643
aVcatch
p644
aVcategories
p645
aVcategory
p646
aVcathode
p647
aVcatholic
p648
aVcatkins
p649
aVcaught
p650
aVcause
p651
aVcaused
p652
aVcauses
p653
aVcausing
p654
aVcaution
p655
aVcavity
p656
aVcelebrated
p657
aVcells
p658
aVcellulose
p659
aVcensus
p660
aVcenter
p661
aVcentered
p662
aVcenters
p663
aVcentral
p664
aVcentrally
p665
aVcentrifuged
p666
aVcents
p667
aVcenturies
p668
aVcentury
p669
aVcertain
p670
aVcertainly
p671
aVcertainty
p672
aVchain
p673
aVchair
p674
aVchairman
p675
aVchallenge
p676
aVchamber
p677
aVchance
p678
aVchancellor
p679
aVchances
p680
aVchange
p681
aVchanged
p682
aVchanges
p683
aVchanging
p684
aVchannel
p685
aVchannels
p686
aVchapter
p687
aVchapters
p688
aVcharacter
p689
aVcharacteristic
p690
aVcharacteristics
p691
aVcharacterized
p692
aVcharacters
p693
aVcharge
p694
aVcharged
p695
aVcharges
p696
aVcharles
p697
aVcharlie
p698
aVcharm
p699
aVcharming
p700
aVchart
p701
aVcharted
p702
aVcharter
p703
aVcheck
p704
aVchecked
p705
aVchemical
p706
aVchemische
p707
aVchemistry
p708
aVcherished
p709
aVchest
p710
aVchicago
p711
aVchicken
p712
aVchief
p713
aVchiefly
p714
aVchild
p715
aVchild's
p716
aVchildhood
p717
aVchildren
p718
aVchildren's
p719
aVchina
p720
aVchinese
p721
aVchlorine
p722
aVchoice
p723
aVcholesterol
p724
aVchoose
p725
aVchords
p726
aVchoreographed
p727
aVchorus
p728
aVchose
p729
aVchosen
p730
aVchrist
p731
aVchristian
p732
aVchromatic
p733
aVchromatography
p734
aVchronic
p735
aVchurch
p736
aVchurches
p737
aVchurchill
p738
aVcircle
p739
aVcircles
p740
aVcircular
p741
aVcircumstance
p742
aVcircumstances
p743
aVcited
p744
aVcites
p745
aVcities
p746
aVcitizen
p747
aVcitizens
p748
aVcity's
p749
aVcivic
p750
aVcivil
p751
aVcivilization
p752
aVcivilized
p753
aVclaim
p754
aVclaimed
p755
aVclaims
p756
aVclamps
p757
aVclarified
p758
aVclarity
p759
aVclark
p760
aVclass
p761
aVclasses
p762
aVclassic
p763
aVclassical
p764
aVclassification
p765
aVclassified
p766
aVclassify
p767
aVclassroom
p768
aVclause
p769
aVclean
p770
aVcleaning
p771
aVclear
p772
aVclearer
p773
aVclearly
p774
aVclerfayt
p775
aVclever
p776
aVclient's
p777
aVclimate
p778
aVclinical
p779
aVclose
p780
aVclosed
p781
aVclosely
p782
aVcloser
p783
aVclosest
p784
aVclosing
p785
aVcloth
p786
aVclothes
p787
aVcloud
p788
aVclover
p789
aVclubs
p790
aVco-operation
p791
aVcoast
p792
aVcoating
p793
aVcoatings
p794
aVcodes
p795
aVcoexistence
p796
aVcohesive
p797
aVcoincide
p798
aVcollaboration
p799
aVcollage
p800
aVcollected
p801
aVcollection
p802
aVcollective
p803
aVcollege
p804
aVcolleges
p805
aVcolonial
p806
aVcolor
p807
aVcolored
p808
aVcolorful
p809
aVcolors
p810
aVcolumbia
p811
aVcolumn
p812
aVcolumns
p813
aVcombination
p814
aVcombinations
p815
aVcombined
p816
aVcomedie
p817
aVcomedy
p818
aVcomes
p819
aVcomfort
p820
aVcomfortable
p821
aVcoming
p822
aVcommand
p823
aVcommander
p824
aVcommend
p825
aVcomment
p826
aVcomments
p827
aVcommerce
p828
aVcommercial
p829
aVcommercially
p830
aVcommercials
p831
aVcommission
p832
aVcommissioners
p833
aVcommissions
p834
aVcommittee
p835
aVcommon
p836
aVcommonly
p837
aVcommonplace
p838
aVcommunese
p839
aVcommunicate
p840
aVcommunication
p841
aVcommunications
p842
aVcommunicative
p843
aVcommunism
p844
aVcommunist
p845
aVcommunists
p846
aVcommunities
p847
aVcommunity
p848
aVcommute
p849
aVcompanies
p850
aVcompany
p851
aVcomparable
p852
aVcomparative
p853
aVcompare
p854
aVcompared
p855
aVcomparison
p856
aVcompatible
p857
aVcompelled
p858
aVcompelling
p859
aVcompete
p860
aVcompetence
p861
aVcompetent
p862
aVcompeting
p863
aVcompetition
p864
aVcompetitive
p865
aVcompilation
p866
aVcompiled
p867
aVcompiler
p868
aVcomplaint
p869
aVcomplement
p870
aVcomplete
p871
aVcompleted
p872
aVcompletely
p873
aVcompletion
p874
aVcomplex
p875
aVcomplexes
p876
aVcomplexity
p877
aVcomplicated
p878
aVcomponent
p879
aVcomponents
p880
aVcomposed
p881
aVcomposer
p882
aVcomposers
p883
aVcomposite
p884
aVcomposition
p885
aVcompositions
p886
aVcompounds
p887
aVcomprehensive
p888
aVcomprise
p889
aVcompromise
p890
aVcompulsive
p891
aVcompulsivity
p892
aVcomputed
p893
aVcomputer
p894
aVconant
p895
aVconceivable
p896
aVconceived
p897
aVconcentrate
p898
aVconcentrated
p899
aVconcentration
p900
aVconcentrations
p901
aVconcept
p902
aVconception
p903
aVconceptions
p904
aVconcepts
p905
aVconcern
p906
aVconcerned
p907
aVconcerning
p908
aVconcerns
p909
aVconcert
p910
aVconcerto
p911
aVconcerts
p912
aVconclude
p913
aVconcluded
p914
aVconcluding
p915
aVconclusion
p916
aVconclusions
p917
aVconclusive
p918
aVconclusively
p919
aVconcrete
p920
aVconcurrent
p921
aVcondensation
p922
aVcondensed
p923
aVcondition
p924
aVconditioned
p925
aVconditioning
p926
aVconditions
p927
aVconduct
p928
aVconducted
p929
aVconductor
p930
aVconference
p931
aVconferences
p932
aVconfidence
p933
aVconfident
p934
aVconfined
p935
aVconfirm
p936
aVconfirmed
p937
aVconflict
p938
aVconform
p939
aVconfrontation
p940
aVconfronted
p941
aVconfronting
p942
aVconfused
p943
aVconfusion
p944
aVcongo
p945
aVcongress
p946
aVcongressional
p947
aVcongruence
p948
aVconjugate
p949
aVconjugated
p950
aVconjugates
p951
aVconjunction
p952
aVconnally
p953
aVconnected
p954
aVconnection
p955
aVconscience
p956
aVconscious
p957
aVconsensus
p958
aVconsequence
p959
aVconsequences
p960
aVconsequent
p961
aVconsequently
p962
aVconservation
p963
aVconservative
p964
aVconsider
p965
aVconsiderable
p966
aVconsiderably
p967
aVconsideration
p968
aVconsiderations
p969
aVconsidered
p970
aVconsidering
p971
aVconsiders
p972
aVconsist
p973
aVconsisted
p974
aVconsistency
p975
aVconsistent
p976
aVconsistently
p977
aVconsisting
p978
aVconsists
p979
aVconsolidation
p980
aVconsonantal
p981
aVconstant
p982
aVconstantly
p983
aVconstants
p984
aVconstituents
p985
aVconstitute
p986
aVconstitutes
p987
aVconstitution
p988
aVconstitutional
p989
aVconstrictor
p990
aVconstructed
p991
aVconstruction
p992
aVconsumer
p993
aVconsumption
p994
aVcontact
p995
aVcontacts
p996
aVcontain
p997
aVcontained
p998
aVcontaining
p999
aVcontains
p1000
aVcontemporary
p1001
aVcontent
p1002
aVcontents
p1003
aVcontext
p1004
aVcontinually
p1005
aVcontinuation
p1006
aVcontinue
p1007
aVcontinued
p1008
aVcontinues
p1009
aVcontinuing
p1010
aVcontinuity
p1011
aVcontinuous
p1012
aVcontinuously
p1013
aVcontinuum
p1014
aVcontours
p1015
aVcontract
p1016
aVcontraction
p1017
aVcontracts
p1018
aVcontractual
p1019
aVcontrary
p1020
aVcontrast
p1021
aVcontrasts
p1022
aVcontribute
p1023
aVcontributed
p1024
aVcontributes
p1025
aVcontribution
p1026
aVcontrol
p1027
aVcontrolled
p1028
aVcontrolling
p1029
aVcontrols
p1030
aVcontroversial
p1031
aVcontroversy
p1032
aVconvenient
p1033
aVconvention
p1034
aVconventional
p1035
aVconversation
p1036
aVconversely
p1037
aVconviction
p1038
aVconvictions
p1039
aVconvinced
p1040
aVconvincing
p1041
aVcooled
p1042
aVcooling
p1043
aVcoombs
p1044
aVcooperation
p1045
aVcoordination
p1046
aVcoping
p1047
aVcorner
p1048
aVcorners
p1049
aVcorollary
p1050
aVcoronary
p1051
aVcorporate
p1052
aVcorporation
p1053
aVcorporation's
p1054
aVcorporations
p1055
aVcorps
p1056
aVcorrect
p1057
aVcorrelation
p1058
aVcorrespondence
p1059
aVcorresponding
p1060
aVcorresponds
p1061
aVcortex
p1062
aVcosmic
p1063
aVcostaggini
p1064
aVcosts
p1065
aVcostumes
p1066
aVcould
p1067
aVcouldn't
p1068
aVcouncil
p1069
aVcount
p1070
aVcounted
p1071
aVcounties
p1072
aVcountries
p1073
aVcountry
p1074
aVcounty
p1075
aVcouperin
p1076
aVcouple
p1077
aVcoupled
p1078
aVcoupler
p1079
aVcouples
p1080
aVcoupling
p1081
aVcourage
p1082
aVcourse
p1083
aVcourses
p1084
aVcourt
p1085
aVcourts
p1086
aVcover
p1087
aVcoverage
p1088
aVcovered
p1089
aVcovering
p1090
aVcovers
p1091
aVcracking
p1092
aVcraft
p1093
aVcrash
p1094
aVcreate
p1095
aVcreated
p1096
aVcreating
p1097
aVcreation
p1098
aVcreative
p1099
aVcreatures
p1100
aVcredit
p1101
aVcredo
p1102
aVcrime
p1103
aVcrimes
p1104
aVcriminal
p1105
aVcrises
p1106
aVcrisis
p1107
aVcriteria
p1108
aVcriterion
p1109
aVcritic
p1110
aVcritical
p1111
aVcriticality
p1112
aVcriticism
p1113
aVcriticisms
p1114
aVcriticized
p1115
aVcritics
p1116
aVcross
p1117
aVcrowd
p1118
aVcrown
p1119
aVcrucial
p1120
aVcruising
p1121
aVcrystal
p1122
aVcrystalline
p1123
aVcrystallographic
p1124
aVcrystals
p1125
aVcuban
p1126
aVcubism
p1127
aVcubist
p1128
aVcultural
p1129
aVculture
p1130
aVcumulative
p1131
aVcunard
p1132
aVcurious
p1133
aVcurrency
p1134
aVcurrent
p1135
aVcurrently
p1136
aVcurrents
p1137
aVcurriculum
p1138
aVcurtain
p1139
aVcurvature
p1140
aVcurve
p1141
aVcurves
p1142
aVcustomary
p1143
aVcustomer
p1144
aVcustomers
p1145
aVcustoms
p1146
aVcutting
p1147
aVcycle
p1148
aVcycles
p1149
aVcylindrical
p1150
aVdaily
p1151
aVdallas
p1152
aVdamage
p1153
aVdance
p1154
aVdancer
p1155
aVdancers
p1156
aVdances
p1157
aVdancing
p1158
aVdanger
p1159
aVdangerous
p1160
aVdangers
p1161
aVdated
p1162
aVdates
p1163
aVdavid
p1164
aVdavis
p1165
aVday's
p1166
aVdeae-cellulose
p1167
aVdealing
p1168
aVdeals
p1169
aVdealt
p1170
aVdeath
p1171
aVdebut
p1172
aVdecade
p1173
aVdecades
p1174
aVdecember
p1175
aVdecide
p1176
aVdecided
p1177
aVdecision
p1178
aVdecisions
p1179
aVdeclaration
p1180
aVdeclarative
p1181
aVdeclared
p1182
aVdecline
p1183
aVdecomposition
p1184
aVdecorative
p1185
aVdecrease
p1186
aVdecreased
p1187
aVdecreases
p1188
aVdecreasing
p1189
aVdedicated
p1190
aVdeduced
p1191
aVdeduction
p1192
aVdeemed
p1193
aVdeeper
p1194
aVdeeply
p1195
aVdefeat
p1196
aVdefend
p1197
aVdefended
p1198
aVdefense
p1199
aVdefensive
p1200
aVdeficiency
p1201
aVdeficit
p1202
aVdefine
p1203
aVdefined
p1204
aVdefinite
p1205
aVdefinitely
p1206
aVdefinition
p1207
aVdefinitions
p1208
aVdeformation
p1209
aVdegree
p1210
aVdegrees
p1211
aVdekalb
p1212
aVdelaware
p1213
aVdelay
p1214
aVdelayed
p1215
aVdeliberately
p1216
aVdelicate
p1217
aVdelight
p1218
aVdelightful
p1219
aVdeliver
p1220
aVdemand
p1221
aVdemanded
p1222
aVdemands
p1223
aVdemocracy
p1224
aVdemocratic
p1225
aVdemocrats
p1226
aVdemographic
p1227
aVdemonstrate
p1228
aVdemonstrated
p1229
aVdemonstration
p1230
aVdenial
p1231
aVdenied
p1232
aVdenoted
p1233
aVdenotes
p1234
aVdensity
p1235
aVdepartment
p1236
aVdepartments
p1237
aVdepend
p1238
aVdependence
p1239
aVdependent
p1240
aVdepending
p1241
aVdepends
p1242
aVdepicted
p1243
aVdeposited
p1244
aVdepot
p1245
aVdepressed
p1246
aVdepression
p1247
aVdeprived
p1248
aVdepth
p1249
aVdeputies
p1250
aVdeputy
p1251
aVderive
p1252
aVderived
p1253
aVdescending
p1254
aVdescribe
p1255
aVdescribed
p1256
aVdescribes
p1257
aVdescription
p1258
aVdescriptions
p1259
aVdescriptive
p1260
aVdesegregated
p1261
aVdesegregation
p1262
aVdesert
p1263
aVdeserve
p1264
aVdeserved
p1265
aVdeserves
p1266
aVdesign
p1267
aVdesigned
p1268
aVdesirable
p1269
aVdesire
p1270
aVdesired
p1271
aVdespair
p1272
aVdesperate
p1273
aVdespite
p1274
aVdestiny
p1275
aVdestroy
p1276
aVdestroyed
p1277
aVdestroying
p1278
aVdestruction
p1279
aVdestructive
p1280
aVdetail
p1281
aVdetailed
p1282
aVdetails
p1283
aVdetectable
p1284
aVdetected
p1285
aVdetection
p1286
aVdetergent
p1287
aVdetermination
p1288
aVdetermine
p1289
aVdetermined
p1290
aVdetermining
p1291
aVdeterministic
p1292
aVdetroit
p1293
aVdevelop
p1294
aVdeveloped
p1295
aVdeveloper
p1296
aVdeveloping
p1297
aVdevelopment
p1298
aVdevelopmental
p1299
aVdevelopments
p1300
aVdevelops
p1301
aVdeviation
p1302
aVdevice
p1303
aVdevices
p1304
aVdevised
p1305
aVdevoted
p1306
aVdi-iodotyrosine
p1307
aVdiagnosis
p1308
aVdiagnostic
p1309
aVdiagonalizable
p1310
aVdialogue
p1311
aVdialysis
p1312
aVdiameter
p1313
aVdickens
p1314
aVdictatorship
p1315
aVdiction
p1316
aVdictionary
p1317
aVdidn't
p1318
aVdietary
p1319
aVdiffer
p1320
aVdiffered
p1321
aVdifference
p1322
aVdifferences
p1323
aVdifferent
p1324
aVdifferential
p1325
aVdifferentiation
p1326
aVdifferently
p1327
aVdifficult
p1328
aVdifficulties
p1329
aVdifficulty
p1330
aVdiffraction
p1331
aVdigby
p1332
aVdigital
p1333
aVdignity
p1334
aVdilemma
p1335
aVdillon
p1336
aVdilution
p1337
aVdimension
p1338
aVdimensional
p1339
aVdimensions
p1340
aVdiminished
p1341
aVdiocs
p1342
aVdiplomacy
p1343
aVdiplomatic
p1344
aVdipole
p1345
aVdirect
p1346
aVdirected
p1347
aVdirection
p1348
aVdirectional
p1349
aVdirections
p1350
aVdirectly
p1351
aVdirector
p1352
aVdirty
p1353
aVdisagreement
p1354
aVdisappearance
p1355
aVdisapproval
p1356
aVdisarmament
p1357
aVdisaster
p1358
aVdisastrous
p1359
aVdischarge
p1360
aVdischarges
p1361
aVdiscipline
p1362
aVdiscount
p1363
aVdiscourse
p1364
aVdiscover
p1365
aVdiscovered
p1366
aVdiscovery
p1367
aVdiscrepancy
p1368
aVdiscrete
p1369
aVdiscretion
p1370
aVdiscrimination
p1371
aVdiscuss
p1372
aVdiscussed
p1373
aVdiscussing
p1374
aVdiscussion
p1375
aVdiscussions
p1376
aVdisease
p1377
aVdiseases
p1378
aVdisorders
p1379
aVdispersed
p1380
aVdisplacement
p1381
aVdisplay
p1382
aVdisplayed
p1383
aVdisplays
p1384
aVdisposal
p1385
aVdispute
p1386
aVdisputes
p1387
aVdisseminated
p1388
aVdissolved
p1389
aVdistal
p1390
aVdistance
p1391
aVdistances
p1392
aVdistant
p1393
aVdistilled
p1394
aVdistinct
p1395
aVdistinction
p1396
aVdistinctly
p1397
aVdistinguish
p1398
aVdistinguished
p1399
aVdistorted
p1400
aVdistress
p1401
aVdistributed
p1402
aVdistribution
p1403
aVdistributions
p1404
aVdistrict
p1405
aVdistricts
p1406
aVdiverse
p1407
aVdiversity
p1408
aVdivide
p1409
aVdivided
p1410
aVdivides
p1411
aVdivine
p1412
aVdivision
p1413
aVdivorce
p1414
aVdjango
p1415
aVdoctors
p1416
aVdoctrine
p1417
aVdocument
p1418
aVdocuments
p1419
aVdoesn't
p1420
aVdoing
p1421
aVdollar
p1422
aVdollars
p1423
aVdomestic
p1424
aVdominance
p1425
aVdominant
p1426
aVdominated
p1427
aVdominican
p1428
aVdon't
p1429
aVdonors
p1430
aVdoors
p1431
aVdorset
p1432
aVdoses
p1433
aVdouble
p1434
aVdoubt
p1435
aVdoubtful
p1436
aVdouglas
p1437
aVdouglass
p1438
aVdowex-2-chloride
p1439
aVdowntown
p1440
aVdozen
p1441
aVdraft
p1442
aVdrain
p1443
aVdrama
p1444
aVdramatic
p1445
aVdrawing
p1446
aVdrawings
p1447
aVdrawn
p1448
aVdraws
p1449
aVdress
p1450
aVdried
p1451
aVdrift
p1452
aVdrinking
p1453
aVdrinks
p1454
aVdrive
p1455
aVdriver
p1456
aVdrivers
p1457
aVdriving
p1458
aVdromozoa
p1459
aVdropped
p1460
aVdrops
p1461
aVdrugs
p1462
aVdrugstore
p1463
aVdrums
p1464
aVdrying
p1465
aVdupont
p1466
aVduring
p1467
aVduties
p1468
aVdying
p1469
aVdylan
p1470
aVdynamic
p1471
aVearlier
p1472
aVearliest
p1473
aVearly
p1474
aVearnings
p1475
aVearth
p1476
aVearth's
p1477
aVearthmen
p1478
aVeasier
p1479
aVeasily
p1480
aVeastern
p1481
aVeating
p1482
aVeconomic
p1483
aVeconomy
p1484
aVedges
p1485
aVedition
p1486
aVeditor
p1487
aVeditorial
p1488
aVeditors
p1489
aVeducation
p1490
aVeducational
p1491
aVedward
p1492
aVeffect
p1493
aVeffective
p1494
aVeffectively
p1495
aVeffectiveness
p1496
aVeffects
p1497
aVefficiency
p1498
aVeffluent
p1499
aVeffort
p1500
aVefforts
p1501
aVeight
p1502
aVeighth
p1503
aVeisenhower
p1504
aVeither
p1505
aVekstrohm
p1506
aVelaborate
p1507
aVelasticity
p1508
aVelect
p1509
aVelected
p1510
aVelection
p1511
aVelections
p1512
aVelectoral
p1513
aVelectric
p1514
aVelectrical
p1515
aVelectricity
p1516
aVelectrode
p1517
aVelectron
p1518
aVelectronic
p1519
aVelectrons
p1520
aVelectrophoresis
p1521
aVelectrostatic
p1522
aVelegance
p1523
aVelegant
p1524
aVelement
p1525
aVelementary
p1526
aVelementary-school
p1527
aVelements
p1528
aVeleven
p1529
aVeliminate
p1530
aVeliminated
p1531
aVeliminating
p1532
aVelimination
p1533
aVelite
p1534
aVellipsoids
p1535
aVeloquent
p1536
aVelse's
p1537
aVelsewhere
p1538
aVembark
p1539
aVemerge
p1540
aVemerged
p1541
aVemergency
p1542
aVemission
p1543
aVemotion
p1544
aVemotional
p1545
aVemotionally
p1546
aVemotions
p1547
aVemphasis
p1548
aVemphasize
p1549
aVemphasized
p1550
aVempirical
p1551
aVemploy
p1552
aVemployed
p1553
aVemployees
p1554
aVemployer
p1555
aVemployers
p1556
aVemployes
p1557
aVemployment
p1558
aVempty
p1559
aVenable
p1560
aVenchanting
p1561
aVencounter
p1562
aVencountered
p1563
aVencourage
p1564
aVencouraged
p1565
aVencouraging
p1566
aVended
p1567
aVending
p1568
aVendure
p1569
aVenemies
p1570
aVenemy
p1571
aVenergies
p1572
aVenergy
p1573
aVenforce
p1574
aVenforced
p1575
aVenforcement
p1576
aVengaged
p1577
aVengagement
p1578
aVengineer
p1579
aVengineering
p1580
aVengland
p1581
aVenglish
p1582
aVenjoy
p1583
aVenjoyed
p1584
aVenjoyment
p1585
aVenormous
p1586
aVenough
p1587
aVensemble
p1588
aVensure
p1589
aVenter
p1590
aVentered
p1591
aVentering
p1592
aVenterprise
p1593
aVenthusiasm
p1594
aVenthusiastic
p1595
aVentire
p1596
aVentirely
p1597
aVentirety
p1598
aVentitled
p1599
aVentrance
p1600
aVentries
p1601
aVentry
p1602
aVenvelope
p1603
aVenvironment
p1604
aVenvironmental
p1605
aVenzymes
p1606
aVepidemic
p1607
aVepiphysis
p1608
aVepithets
p1609
aVequal
p1610
aVequally
p1611
aVequate
p1612
aVequation
p1613
aVequations
p1614
aVequilibrium
p1615
aVequipment
p1616
aVequipped
p1617
aVequivalent
p1618
aVequivalents
p1619
aVerror
p1620
aVerrors
p1621
aVescalation
p1622
aVescape
p1623
aVespecially
p1624
aVessays
p1625
aVessential
p1626
aVessentially
p1627
aVestablish
p1628
aVestablished
p1629
aVestablishing
p1630
aVestablishment
p1631
aVestimate
p1632
aVestimated
p1633
aVestimates
p1634
aVeternal
p1635
aVethical
p1636
aVethics
p1637
aVeurope
p1638
aVeuropean
p1639
aVevaluate
p1640
aVevaluated
p1641
aVevaluating
p1642
aVevaluation
p1643
aVevening
p1644
aVevent
p1645
aVevents
p1646
aVeventually
p1647
aVevery
p1648
aVeverybody
p1649
aVeveryone
p1650
aVeverything
p1651
aVeverywhere
p1652
aVevidence
p1653
aVevidenced
p1654
aVevident
p1655
aVevolution
p1656
aVevolved
p1657
aVexact
p1658
aVexactly
p1659
aVexaggerated
p1660
aVexamination
p1661
aVexamine
p1662
aVexamined
p1663
aVexample
p1664
aVexamples
p1665
aVexcellent
p1666
aVexcept
p1667
aVexception
p1668
aVexceptional
p1669
aVexceptions
p1670
aVexcerpt
p1671
aVexcess
p1672
aVexcessive
p1673
aVexchange
p1674
aVexcitement
p1675
aVexciting
p1676
aVexclusive
p1677
aVexclusively
p1678
aVexcuse
p1679
aVexecuted
p1680
aVexecution
p1681
aVexecutive
p1682
aVexercise
p1683
aVexercised
p1684
aVexercises
p1685
aVexerted
p1686
aVexhibit
p1687
aVexhibiting
p1688
aVexhibition
p1689
aVexist
p1690
aVexisted
p1691
aVexistence
p1692
aVexisting
p1693
aVexists
p1694
aVexpanded
p1695
aVexpanding
p1696
aVexpansion
p1697
aVexpect
p1698
aVexpectations
p1699
aVexpected
p1700
aVexpects
p1701
aVexpedition
p1702
aVexpended
p1703
aVexpenditures
p1704
aVexpense
p1705
aVexpenses
p1706
aVexpensive
p1707
aVexperience
p1708
aVexperienced
p1709
aVexperiences
p1710
aVexperiment
p1711
aVexperimental
p1712
aVexperimentally
p1713
aVexperimentation
p1714
aVexperiments
p1715
aVexpert
p1716
aVexperts
p1717
aVexplain
p1718
aVexplained
p1719
aVexplaining
p1720
aVexplains
p1721
aVexplanation
p1722
aVexplanations
p1723
aVexplicit
p1724
aVexploration
p1725
aVexposed
p1726
aVexposure
p1727
aVexpress
p1728
aVexpressed
p1729
aVexpressing
p1730
aVexpression
p1731
aVexpressions
p1732
aVexpressway
p1733
aVextend
p1734
aVextended
p1735
aVextending
p1736
aVextends
p1737
aVextension
p1738
aVextensive
p1739
aVextent
p1740
aVexternal
p1741
aVextra
p1742
aVextract
p1743
aVextraordinary
p1744
aVextreme
p1745
aVextremely
p1746
aVf-plane
p1747
aVfabric
p1748
aVfabrics
p1749
aVfaced
p1750
aVfaces
p1751
aVfacilities
p1752
aVfacing
p1753
aVfactor
p1754
aVfactories
p1755
aVfactors
p1756
aVfactory
p1757
aVfacts
p1758
aVfaculty
p1759
aVfaget
p1760
aVfailed
p1761
aVfailing
p1762
aVfails
p1763
aVfailure
p1764
aVfairly
p1765
aVfaith
p1766
aVfalling
p1767
aVfallout
p1768
aVfalls
p1769
aVfalse
p1770
aVfamiliar
p1771
aVfamilies
p1772
aVfamily
p1773
aVfamous
p1774
aVfantastic
p1775
aVfarther
p1776
aVfascinating
p1777
aVfashion
p1778
aVfather
p1779
aVfathers
p1780
aVfatigue
p1781
aVfatty
p1782
aVfaulty
p1783
aVfavor
p1784
aVfavorable
p1785
aVfavorites
p1786
aVfears
p1787
aVfeasible
p1788
aVfeature
p1789
aVfeatures
p1790
aVfebruary
p1791
aVfederal
p1792
aVfederation
p1793
aVfeedback
p1794
aVfeeding
p1795
aVfeeling
p1796
aVfeelings
p1797
aVfeels
p1798
aVfellow
p1799
aVfemale
p1800
aVfemales
p1801
aVfertility
p1802
aVfestival
p1803
aVfever
p1804
aVfewer
p1805
aVfiber
p1806
aVfiber-coupled
p1807
aVfibers
p1808
aVfibrosis
p1809
aVfiction
p1810
aVfield
p1811
aVfields
p1812
aVfifteen
p1813
aVfifth
p1814
aVfifties
p1815
aVfifty
p1816
aVfight
p1817
aVfighting
p1818
aVfigs.
p1819
aVfigure
p1820
aVfigures
p1821
aVfiled
p1822
aVfilled
p1823
aVfilling
p1824
aVfilms
p1825
aVfilter
p1826
aVfinal
p1827
aVfinally
p1828
aVfinance
p1829
aVfinancial
p1830
aVfinancially
p1831
aVfinancing
p1832
aVfinding
p1833
aVfindings
p1834
aVfinds
p1835
aVfinest
p1836
aVfinger
p1837
aVfingers
p1838
aVfinish
p1839
aVfinished
p1840
aVfinite
p1841
aVfired
p1842
aVfirmly
p1843
aVfirms
p1844
aVfirst
p1845
aVfiscal
p1846
aVfission
p1847
aVfitting
p1848
aVfixed
p1849
aVflashes
p1850
aVflask
p1851
aVflat-bed
p1852
aVflatness
p1853
aVflexibility
p1854
aVflexible
p1855
aVflexural
p1856
aVflight
p1857
aVfloating
p1858
aVflood
p1859
aVfloor
p1860
aVflower
p1861
aVflowers
p1862
aVfluid
p1863
aVfluids
p1864
aVfluorescence
p1865
aVflying
p1866
aVfoamed
p1867
aVfoaming
p1868
aVfoams
p1869
aVfocus
p1870
aVfollow
p1871
aVfollow-up
p1872
aVfollowed
p1873
aVfollowers
p1874
aVfollowing
p1875
aVfollows
p1876
aVfoods
p1877
aVfootball
p1878
aVforce
p1879
aVforced
p1880
aVforces
p1881
aVforecast
p1882
aVforecasting
p1883
aVforegoing
p1884
aVforeign
p1885
aVforeseen
p1886
aVforever
p1887
aVforget
p1888
aVforgive
p1889
aVforgiveness
p1890
aVforgotten
p1891
aVformal
p1892
aVformat
p1893
aVformation
p1894
aVformed
p1895
aVformer
p1896
aVforming
p1897
aVformosa
p1898
aVforms
p1899
aVformula
p1900
aVformulaic
p1901
aVformulas
p1902
aVformulation
p1903
aVformulations
p1904
aVforth
p1905
aVfortunately
p1906
aVforty
p1907
aVforward
p1908
aVfoster
p1909
aVfought
p1910
aVfound
p1911
aVfoundations
p1912
aVfourth
p1913
aVfraction
p1914
aVfractions
p1915
aVframe
p1916
aVfrance
p1917
aVfrancisco
p1918
aVfrank
p1919
aVfrankfurter
p1920
aVfranklin
p1921
aVfrederick
p1922
aVfreedom
p1923
aVfreely
p1924
aVfreeman
p1925
aVfreeways
p1926
aVfreezing
p1927
aVfreight
p1928
aVfrench
p1929
aVfrequencies
p1930
aVfrequency
p1931
aVfrequent
p1932
aVfrequently
p1933
aVfresco
p1934
aVfresh
p1935
aVfriction
p1936
aVfriend
p1937
aVfriendly
p1938
aVfriends
p1939
aVfriendship
p1940
aVfrieze
p1941
aVfringe
p1942
aVfromm
p1943
aVfromm's
p1944
aVfront
p1945
aVfrontier
p1946
aVfrozen
p1947
aVfrustration
p1948
aVfulfillment
p1949
aVfuller
p1950
aVfully
p1951
aVfunction
p1952
aVfunctional
p1953
aVfunctioning
p1954
aVfunctions
p1955
aVfundamental
p1956
aVfunds
p1957
aVfuneral
p1958
aVfunny
p1959
aVfurnish
p1960
aVfurther
p1961
aVfurthermore
p1962
aVfusion
p1963
aVfuture
p1964
aVgabriel
p1965
aVgained
p1966
aVgalaxies
p1967
aVgallery
p1968
aVgallium
p1969
aVgames
p1970
aVgarden
p1971
aVgarland
p1972
aVgathering
p1973
aVgauge
p1974
aVgeneral
p1975
aVgeneralized
p1976
aVgenerally
p1977
aVgenerals
p1978
aVgenerate
p1979
aVgenerated
p1980
aVgenerating
p1981
aVgeneration
p1982
aVgenerations
p1983
aVgenerator
p1984
aVgenerators
p1985
aVgenerous
p1986
aVgenetic
p1987
aVgentleman
p1988
aVgentlemen
p1989
aVgenuine
p1990
aVgenuinely
p1991
aVgeographical
p1992
aVgeographically
p1993
aVgeological
p1994
aVgeometric
p1995
aVgeometry
p1996
aVgeorge
p1997
aVgeorgia
p1998
aVgerman
p1999
aVgermanium
p2000
aVgermans
p2001
aVgermany
p2002
aVgesture
p2003
aVgetting
p2004
aVgiant
p2005
aVgiants
p2006
aVgirls
p2007
aVgiven
p2008
aVgives
p2009
aVgiving
p2010
aVgland
p2011
aVglands
p2012
aVglass
p2013
aVglasses
p2014
aVglimpse
p2015
aVglobe
p2016
aVglorious
p2017
aVgoals
p2018
aVgod's
p2019
aVgoing
p2020
aVgoldberg
p2021
aVgonzales
p2022
aVgoodness
p2023
aVgoods
p2024
aVgotten
p2025
aVgoverning
p2026
aVgovernment
p2027
aVgovernmental
p2028
aVgovernments
p2029
aVgovernor
p2030
aVgovernor's
p2031
aVgrace
p2032
aVgrade
p2033
aVgrades
p2034
aVgradient
p2035
aVgradually
p2036
aVgraduate
p2037
aVgrain
p2038
aVgrammatical
p2039
aVgrand
p2040
aVgrant
p2041
aVgranted
p2042
aVgraph
p2043
aVgraphite
p2044
aVgrass
p2045
aVgrateful
p2046
aVgrave
p2047
aVgreasy
p2048
aVgreat
p2049
aVgreater
p2050
aVgreatest
p2051
aVgreatly
p2052
aVgreek
p2053
aVgreen
p2054
aVgreenwich
p2055
aVgrips
p2056
aVgross
p2057
aVgroth
p2058
aVground
p2059
aVgrounds
p2060
aVgroup
p2061
aVgrouping
p2062
aVgroups
p2063
aVgrowing
p2064
aVgrown
p2065
aVgrows
p2066
aVgrowth
p2067
aVguaranteed
p2068
aVguarantees
p2069
aVguard
p2070
aVguess
p2071
aVguidance
p2072
aVguide
p2073
aVguilt
p2074
aVguilty
p2075
aVguitar
p2076
aVgyro-stabilized
p2077
aVgyros
p2078
aVhabits
p2079
aVhairs
p2080
aVhalf-man
p2081
aVhammarskjold
p2082
aVhammock
p2083
aVhandful
p2084
aVhandicapped
p2085
aVhandle
p2086
aVhandled
p2087
aVhandling
p2088
aVhands
p2089
aVhandsome
p2090
aVhanging
p2091
aVhappen
p2092
aVhappened
p2093
aVhappens
p2094
aVhappily
p2095
aVhappiness
p2096
aVhappy
p2097
aVharbor
p2098
aVhard-surface
p2099
aVharder
p2100
aVhardly
p2101
aVhardy
p2102
aVhardy's
p2103
aVharper's
p2104
aVharry
p2105
aVharvard
p2106
aVharvest
p2107
aVhasn't
p2108
aVhaving
p2109
aVhazard
p2110
aVheaded
p2111
aVheading
p2112
aVheadquarters
p2113
aVheads
p2114
aVhealth
p2115
aVhealthy
p2116
aVheard
p2117
aVhearing
p2118
aVheart
p2119
aVhearts
p2120
aVheated
p2121
aVheaven
p2122
aVheavily
p2123
aVheavy
p2124
aVhebephrenic
p2125
aVheels
p2126
aVheight
p2127
aVhelped
p2128
aVhelpful
p2129
aVhelping
p2130
aVhelps
p2131
aVhelva
p2132
aVhelva's
p2133
aVhemisphere
p2134
aVhence
p2135
aVhenry
p2136
aVherbert
p2137
aVheretofore
p2138
aVheroic
p2139
aVherself
p2140
aVhesiometer
p2141
aVhesperus
p2142
aVhigh-gain
p2143
aVhigher
p2144
aVhighest
p2145
aVhighly
p2146
aVhighway
p2147
aVhighways
p2148
aVhills
p2149
aVhilum
p2150
aVhimself
p2151
aVhired
p2152
aVhistorical
p2153
aVhistorically
p2154
aVhistory
p2155
aVhodges
p2156
aVholder
p2157
aVholding
p2158
aVholds
p2159
aVhollywood
p2160
aVhomer
p2161
aVhomeric
p2162
aVhomes
p2163
aVhomozygous
p2164
aVhonest
p2165
aVhonestly
p2166
aVhoney
p2167
aVhonor
p2168
aVhoped
p2169
aVhopes
p2170
aVhorizon
p2171
aVhormone
p2172
aVhorse
p2173
aVhospital
p2174
aVhospitals
p2175
aVhostilities
p2176
aVhotel
p2177
aVhours
p2178
aVhouse
p2179
aVhousehold
p2180
aVhouses
p2181
aVhousing
p2182
aVhowever
p2183
aVhuman
p2184
aVhumanity
p2185
aVhumble
p2186
aVhumor
p2187
aVhundred
p2188
aVhundreds
p2189
aVhunger
p2190
aVhusband
p2191
aVhydrogen
p2192
aVhydrolysis
p2193
aVhypothalamic
p2194
aVhypothalamus
p2195
aVhypothesis
p2196
aVhypothetical
p2197
aVideal
p2198
aVideals
p2199
aVideas
p2200
aVidentical
p2201
aVidentification
p2202
aVidentified
p2203
aVidentify
p2204
aVidentity
p2205
aVideological
p2206
aVignore
p2207
aVignored
p2208
aViliad
p2209
aVillinois
p2210
aVillness
p2211
aVilluminated
p2212
aVillusion
p2213
aVillustrate
p2214
aVillustrated
p2215
aVillustrates
p2216
aVillustrations
p2217
aVimage
p2218
aVimages
p2219
aVimagination
p2220
aVimagine
p2221
aVimagined
p2222
aVimmediate
p2223
aVimmediately
p2224
aVimmunity
p2225
aVimpact
p2226
aVimperative
p2227
aVimplication
p2228
aVimplications
p2229
aVimplied
p2230
aVimplies
p2231
aVimply
p2232
aVimportance
p2233
aVimportant
p2234
aVimports
p2235
aVimposed
p2236
aVimpossible
p2237
aVimpressed
p2238
aVimpression
p2239
aVimpressions
p2240
aVimpressive
p2241
aVimprove
p2242
aVimproved
p2243
aVimprovement
p2244
aVimprovements
p2245
aVimpulses
p2246
aVimpurities
p2247
aVinactive
p2248
aVinadequate
p2249
aVinches
p2250
aVincident
p2251
aVincidentally
p2252
aVinclined
p2253
aVinclude
p2254
aVincluded
p2255
aVincludes
p2256
aVincluding
p2257
aVincome
p2258
aVincomplete
p2259
aVincorporated
p2260
aVincrease
p2261
aVincreased
p2262
aVincreases
p2263
aVincreasing
p2264
aVincreasingly
p2265
aVincredible
p2266
aVindeed
p2267
aVindependence
p2268
aVindependent
p2269
aVindependently
p2270
aVindex
p2271
aVindia
p2272
aVindian
p2273
aVindicate
p2274
aVindicated
p2275
aVindicates
p2276
aVindicating
p2277
aVindication
p2278
aVindications
p2279
aVindicative
p2280
aVindicator
p2281
aVindicators
p2282
aVindices
p2283
aVindirect
p2284
aVindirectly
p2285
aVindividual
p2286
aVindividually
p2287
aVindividuals
p2288
aVinduced
p2289
aVindustrial
p2290
aVindustries
p2291
aVindustry
p2292
aVindustry's
p2293
aVinevitable
p2294
aVinevitably
p2295
aVinfectious
p2296
aVinference
p2297
aVinfinite
p2298
aVinfluence
p2299
aVinfluenced
p2300
aVinfluences
p2301
aVinformal
p2302
aVinformation
p2303
aVinformed
p2304
aVinfrared
p2305
aVinherent
p2306
aVinhibit
p2307
aVinhibited
p2308
aVinhibition
p2309
aVinitial
p2310
aVinitially
p2311
aVinitiative
p2312
aVinjecting
p2313
aVinjury
p2314
aVinner
p2315
aVinorganic
p2316
aVinput
p2317
aVinput/output
p2318
aVinquirer
p2319
aVinquiries
p2320
aVinquiry
p2321
aVinscribed
p2322
aVinsects
p2323
aVinserted
p2324
aVinside
p2325
aVinsist
p2326
aVinsistence
p2327
aVinsoluble
p2328
aVinstallations
p2329
aVinstalled
p2330
aVinstance
p2331
aVinstances
p2332
aVinstead
p2333
aVinstitute
p2334
aVinstituted
p2335
aVinstitution
p2336
aVinstitutions
p2337
aVinstructed
p2338
aVinstruction
p2339
aVinstructions
p2340
aVinstrument
p2341
aVinstrumental
p2342
aVinstruments
p2343
aVinsure
p2344
aVintact
p2345
aVintegral
p2346
aVintegrate
p2347
aVintegration
p2348
aVintellectual
p2349
aVintelligence
p2350
aVintelligent
p2351
aVintelligible
p2352
aVintended
p2353
aVintense
p2354
aVintensely
p2355
aVintensification
p2356
aVintensifier
p2357
aVintensifiers
p2358
aVintensity
p2359
aVintensive
p2360
aVintent
p2361
aVintention
p2362
aVintentional
p2363
aVintentions
p2364
aVinter-american
p2365
aVinteraction
p2366
aVinterama
p2367
aVinterest
p2368
aVinterested
p2369
aVinteresting
p2370
aVinterests
p2371
aVinterfaces
p2372
aVinterfacial
p2373
aVinterior
p2374
aVinterlobular
p2375
aVintermediate
p2376
aVinternal
p2377
aVinternational
p2378
aVinterpret
p2379
aVinterpretation
p2380
aVinterpretations
p2381
aVinterpreted
p2382
aVintersect
p2383
aVintersection
p2384
aVintersections
p2385
aVinterstate
p2386
aVinterval
p2387
aVintervals
p2388
aVintervention
p2389
aVinterview
p2390
aVinterviewing
p2391
aVinterviews
p2392
aVintimate
p2393
aVintonation
p2394
aVintroduced
p2395
aVintroducing
p2396
aVintroduction
p2397
aVinvariably
p2398
aVinvariant
p2399
aVinventories
p2400
aVinverse
p2401
aVinversely
p2402
aVinvestigated
p2403
aVinvestigation
p2404
aVinvestigations
p2405
aVinvestigators
p2406
aVinvestment
p2407
aVinvited
p2408
aVinvolution
p2409
aVinvolve
p2410
aVinvolved
p2411
aVinvolves
p2412
aVinvolving
p2413
aViodide
p2414
aViodinated
p2415
aViodine
p2416
aVionic
p2417
aVionizing
p2418
aVironic
p2419
aVirradiated
p2420
aVirradiation
p2421
aVirregular
p2422
aVirresponsible
p2423
aVisland
p2424
aVislands
p2425
aVisn't
p2426
aVisolated
p2427
aVisolation
p2428
aVissue
p2429
aVissued
p2430
aVissues
p2431
aVistiqlal
p2432
aVitalian
p2433
aVitaly
p2434
aVitems
p2435
aVitself
p2436
aVjackson
p2437
aVjames
p2438
aVjapan
p2439
aVjapanese
p2440
aVjersey
p2441
aVjesus
p2442
aVjohnny
p2443
aVjoined
p2444
aVjoining
p2445
aVjoint
p2446
aVjones
p2447
aVjoseph
p2448
aVjournal
p2449
aVjourney
p2450
aVjubal
p2451
aVjudge
p2452
aVjudges
p2453
aVjudgment
p2454
aVjudgments
p2455
aVjudicial
p2456
aVjunior
p2457
aVjupiter
p2458
aVjurisdiction
p2459
aVjustice
p2460
aVjustified
p2461
aVjustify
p2462
aVjuvenile
p2463
aVkansas
p2464
aVkatanga
p2465
aVkeeping
p2466
aVkeeps
p2467
aVkennan
p2468
aVkennedy
p2469
aVkennedy's
p2470
aVkennings
p2471
aVkhrushchev
p2472
aVkhrushchev's
p2473
aVkilled
p2474
aVkilowatt-hour
p2475
aVkinds
p2476
aVkinetic
p2477
aVkingdom
p2478
aVkirov
p2479
aVknife
p2480
aVknitted
p2481
aVknowing
p2482
aVknowledge
p2483
aVknown
p2484
aVknows
p2485
aVkohnstamm
p2486
aVkohnstamm-negative
p2487
aVkohnstamm-positive
p2488
aVkorea
p2489
aVkremlin
p2490
aVlabel
p2491
aVlabor
p2492
aVlaboratory
p2493
aVlacking
p2494
aVladies
p2495
aVlagoon
p2496
aVlands
p2497
aVlanguage
p2498
aVlanguages
p2499
aVlarge
p2500
aVlargely
p2501
aVlarger
p2502
aVlargest
p2503
aVlarkin
p2504
aVlarvae
p2505
aVlater
p2506
aVlatest
p2507
aVlatin
p2508
aVlatter
p2509
aVlaughter
p2510
aVlaundering
p2511
aVlawrence
p2512
aVlayers
p2513
aVlaying
p2514
aVleader
p2515
aVleaders
p2516
aVleadership
p2517
aVleading
p2518
aVleads
p2519
aVleague
p2520
aVlearn
p2521
aVlearned
p2522
aVlearning
p2523
aVlearns
p2524
aVleast
p2525
aVleave
p2526
aVleaves
p2527
aVleaving
p2528
aVlectures
p2529
aVlegal
p2530
aVlegislation
p2531
aVlegislative
p2532
aVlegislature
p2533
aVlemma
p2534
aVlength
p2535
aVlengths
p2536
aVlengthy
p2537
aVlenin
p2538
aVlesson
p2539
aVlessons
p2540
aVlester
p2541
aVletter
p2542
aVletters
p2543
aVletting
p2544
aVlevel
p2545
aVleveling
p2546
aVlevels
p2547
aVliberal
p2548
aVliberated
p2549
aVliberation
p2550
aVliberty
p2551
aVlibrary
p2552
aVlight
p2553
aVlighting
p2554
aVlightly
p2555
aVlights
p2556
aVliked
p2557
aVlikely
p2558
aVlikewise
p2559
aVlimit
p2560
aVlimitations
p2561
aVlimited
p2562
aVlimits
p2563
aVlincoln
p2564
aVlinear
p2565
aVlined
p2566
aVlines
p2567
aVlinguist
p2568
aVlinguistic
p2569
aVlinguists
p2570
aVlinked
p2571
aVliquid
p2572
aVliquidation
p2573
aVliquor
p2574
aVlisted
p2575
aVlisten
p2576
aVlistener
p2577
aVlisteners
p2578
aVlisting
p2579
aVlists
p2580
aVliteral
p2581
aVliterally
p2582
aVliterary
p2583
aVliterature
p2584
aVlittle
p2585
aVlived
p2586
aVlively
p2587
aVliver
p2588
aVlives
p2589
aVliving
p2590
aVloaded
p2591
aVloading
p2592
aVloadings
p2593
aVlocal
p2594
aVlocated
p2595
aVlocation
p2596
aVlocations
p2597
aVlogic
p2598
aVlogical
p2599
aVlogically
p2600
aVlondon
p2601
aVlonely
p2602
aVlong-run
p2603
aVlong-term
p2604
aVlonger
p2605
aVlooked
p2606
aVlooking
p2607
aVlooks
p2608
aVlookup
p2609
aVloose
p2610
aVloses
p2611
aVlosing
p2612
aVlosses
p2613
aVlouis
p2614
aVlousy
p2615
aVlovely
p2616
aVlower
p2617
aVlower-class
p2618
aVloyal
p2619
aVlucia
p2620
aVluminous
p2621
aVlunar
p2622
aVlungs
p2623
aVlying
p2624
aVlyrics
p2625
aVlyttleton
p2626
aVmachine
p2627
aVmacneff
p2628
aVmadrigal
p2629
aVmagazine
p2630
aVmagic
p2631
aVmagnetic
p2632
aVmagnification
p2633
aVmagnificent
p2634
aVmagnificently
p2635
aVmagnitude
p2636
aVmailed
p2637
aVmailing
p2638
aVmainland
p2639
aVmainly
p2640
aVmaintain
p2641
aVmaintained
p2642
aVmaintaining
p2643
aVmaintenance
p2644
aVmajor
p2645
aVmajority
p2646
aVmakes
p2647
aVmaking
p2648
aVmaladjustment
p2649
aVmales
p2650
aVman's
p2651
aVmanage
p2652
aVmanaged
p2653
aVmanagement
p2654
aVmanager
p2655
aVmanagers
p2656
aVmanchester
p2657
aVmanhattan
p2658
aVmanifest
p2659
aVmanifold
p2660
aVmankind
p2661
aVmanner
p2662
aVmanometer
p2663
aVmanual
p2664
aVmanufacturer
p2665
aVmarch
p2666
aVmarginal
p2667
aVmargins
p2668
aVmaria
p2669
aVmarina
p2670
aVmarital
p2671
aVmarked
p2672
aVmarket
p2673
aVmarkets
p2674
aVmarks
p2675
aVmarksman
p2676
aVmarriage
p2677
aVmarriages
p2678
aVmarried
p2679
aVmarsden
p2680
aVmarshal
p2681
aVmartin
p2682
aVmartyr
p2683
aVmarvelous
p2684
aVmaryland
p2685
aVmasses
p2686
aVmassive
p2687
aVmaster
p2688
aVmatch
p2689
aVmatched
p2690
aVmatching
p2691
aVmaterial
p2692
aVmaterials
p2693
aVmathematical
p2694
aVmathematics
p2695
aVmating
p2696
aVmatter
p2697
aVmatters
p2698
aVmature
p2699
aVmaturity
p2700
aVmaximization
p2701
aVmaximum
p2702
aVmaxwell
p2703
aVmaybe
p2704
aVmayor
p2705
aVmeals
p2706
aVmeaning
p2707
aVmeaningful
p2708
aVmeaningless
p2709
aVmeanings
p2710
aVmeans
p2711
aVmeant
p2712
aVmeanwhile
p2713
aVmeasure
p2714
aVmeasured
p2715
aVmeasurement
p2716
aVmeasurements
p2717
aVmeasures
p2718
aVmeasuring
p2719
aVmeats
p2720
aVmechanical
p2721
aVmechanics
p2722
aVmechanism
p2723
aVmechanisms
p2724
aVmedia
p2725
aVmedical
p2726
aVmedieval
p2727
aVmedium
p2728
aVmeeting
p2729
aVmeets
p2730
aVmegatons
p2731
aVmelodies
p2732
aVmelody
p2733
aVmelting
p2734
aVmember
p2735
aVmembers
p2736
aVmembership
p2737
aVmemorable
p2738
aVmemorial
p2739
aVmemory
p2740
aVmental
p2741
aVmention
p2742
aVmentioned
p2743
aVmercenaries
p2744
aVmercer
p2745
aVmerchant
p2746
aVmercy
p2747
aVmerely
p2748
aVmerger
p2749
aVmerit
p2750
aVmessage
p2751
aVmetabolite
p2752
aVmetal
p2753
aVmetallic
p2754
aVmetaphysical
p2755
aVmetaphysics
p2756
aVmeteorite
p2757
aVmeteorites
p2758
aVmeteoritic
p2759
aVmethod
p2760
aVmethods
p2761
aVmetropolitan
p2762
aVmexican
p2763
aVmexicans
p2764
aVmexico
p2765
aVmiami
p2766
aVmicelle
p2767
aVmicelles
p2768
aVmichigan
p2769
aVmicrometeorite
p2770
aVmicrometeorites
p2771
aVmicrons
p2772
aVmicroorganisms
p2773
aVmicroscopic
p2774
aVmicroscopically
p2775
aVmiddle
p2776
aVmiddle-class
p2777
aVmidnight
p2778
aVmidst
p2779
aVmight
p2780
aVmiles
p2781
aVmilitary
p2782
aVmiller
p2783
aVmillion
p2784
aVmillions
p2785
aVmills
p2786
aVmilstein
p2787
aVminds
p2788
aVmines
p2789
aVminimal
p2790
aVminimize
p2791
aVminimum
p2792
aVminister
p2793
aVminneapolis
p2794
aVminor
p2795
aVminority
p2796
aVminus
p2797
aVminute
p2798
aVminutemen
p2799
aVminutes
p2800
aVmiracle
p2801
aVmirror
p2802
aVmissed
p2803
aVmissing
p2804
aVmission
p2805
aVmississippi
p2806
aVmissouri
p2807
aVmistake
p2808
aVmistaken
p2809
aVmistakes
p2810
aVmitchell
p2811
aVmityukh
p2812
aVmixed
p2813
aVmixing
p2814
aVmixture
p2815
aVmobile
p2816
aVmodel
p2817
aVmodels
p2818
aVmoderate
p2819
aVmoderately
p2820
aVmodern
p2821
aVmodernity
p2822
aVmodernization
p2823
aVmodest
p2824
aVmodified
p2825
aVmolding
p2826
aVmolecular
p2827
aVmolecule
p2828
aVmoliere's
p2829
aVmolotov
p2830
aVmoment
p2831
aVmomentous
p2832
aVmoments
p2833
aVmomentum
p2834
aVmonastic
p2835
aVmonetary
p2836
aVmoney
p2837
aVmonkey
p2838
aVmonstrous
p2839
aVmontgomery
p2840
aVmonth
p2841
aVmonths
p2842
aVmonument
p2843
aVmoral
p2844
aVmorale
p2845
aVmorality
p2846
aVmore's
p2847
aVmoreover
p2848
aVmorning
p2849
aVmorphophonemic
p2850
aVmorphophonemics
p2851
aVmorse
p2852
aVmortar
p2853
aVmortgage
p2854
aVmoscow
p2855
aVmostly
p2856
aVmother
p2857
aVmother's
p2858
aVmothers
p2859
aVmotion
p2860
aVmotor
p2861
aVmounted
p2862
aVmouse
p2863
aVmouth
p2864
aVmoved
p2865
aVmovement
p2866
aVmovements
p2867
aVmoves
p2868
aVmovies
p2869
aVmoving
p2870
aVmucosa
p2871
aVmultiple
p2872
aVmultiplicity
p2873
aVmunicipal
p2874
aVmurder
p2875
aVmuscle
p2876
aVmuscles
p2877
aVmuscular
p2878
aVmuseum
p2879
aVmusic
p2880
aVmusical
p2881
aVmusicians
p2882
aVmussorgsky
p2883
aVmyself
p2884
aVmysterious
p2885
aVnagrin
p2886
aVnaive
p2887
aVnaked
p2888
aVnamed
p2889
aVnamely
p2890
aVnames
p2891
aVnarrative
p2892
aVnarrow
p2893
aVnation
p2894
aVnation's
p2895
aVnational
p2896
aVnations
p2897
aVnative
p2898
aVnatural
p2899
aVnaturally
p2900
aVnature
p2901
aVnaval
p2902
aVnearby
p2903
aVnearer
p2904
aVnearest
p2905
aVnearly
p2906
aVnecessarily
p2907
aVnecessary
p2908
aVnecessitated
p2909
aVnecessity
p2910
aVneeded
p2911
aVneedle
p2912
aVneedless
p2913
aVneeds
p2914
aVnegative
p2915
aVneglected
p2916
aVnegligible
p2917
aVnegotiations
p2918
aVnegro
p2919
aVnegro-appeal
p2920
aVnegroes
p2921
aVneighborhood
p2922
aVneighborhoods
p2923
aVneighboring
p2924
aVneighbors
p2925
aVneither
p2926
aVneocortex
p2927
aVnetworks
p2928
aVneurotic
p2929
aVneutral
p2930
aVneutrophils
p2931
aVnever
p2932
aVnevertheless
p2933
aVnewark
p2934
aVnewer
p2935
aVnewest
p2936
aVnewly
p2937
aVnewport
p2938
aVnewspaper
p2939
aVnewspapers
p2940
aVnickel
p2941
aVnight
p2942
aVnights
p2943
aVnilpotent
p2944
aVnineteenth
p2945
aVninth
p2946
aVnitrogen
p2947
aVnixon
p2948
aVnoble
p2949
aVnogol
p2950
aVnoise
p2951
aVnomenclature
p2952
aVnonspecific
p2953
aVnormal
p2954
aVnormally
p2955
aVnorms
p2956
aVnorth
p2957
aVnorthern
p2958
aVnorthwest
p2959
aVnotably
p2960
aVnoted
p2961
aVnotes
p2962
aVnothing
p2963
aVnotice
p2964
aVnoticeable
p2965
aVnoticed
p2966
aVnotion
p2967
aVnovel
p2968
aVnovels
p2969
aVnovember
p2970
aVnuclear
p2971
aVnuclei
p2972
aVnumber
p2973
aVnumbers
p2974
aVnumerical
p2975
aVnumerous
p2976
aVnurse
p2977
aVnursery
p2978
aVobesity
p2979
aVobject
p2980
aVobjection
p2981
aVobjections
p2982
aVobjective
p2983
aVobjectives
p2984
aVobjects
p2985
aVobligation
p2986
aVobligations
p2987
aVobscure
p2988
aVobservation
p2989
aVobservations
p2990
aVobserve
p2991
aVobserved
p2992
aVobserver
p2993
aVobservers
p2994
aVobtain
p2995
aVobtainable
p2996
aVobtained
p2997
aVobtaining
p2998
aVobvious
p2999
aVobviously
p3000
aVoccasion
p3001
aVoccasional
p3002
aVoccasionally
p3003
aVoccasions
p3004
aVoccluded
p3005
aVoccupation
p3006
aVoccur
p3007
aVoccurred
p3008
aVoccurrence
p3009
aVoccurrences
p3010
aVoccurring
p3011
aVoccurs
p3012
aVoctober
p3013
aVodd-lot
p3014
aVodyssey
p3015
aVoffer
p3016
aVoffered
p3017
aVoffering
p3018
aVoffers
p3019
aVoffice
p3020
aVofficer
p3021
aVofficers
p3022
aVoffices
p3023
aVofficial
p3024
aVofficially
p3025
aVofficials
p3026
aVoften
p3027
aVolder
p3028
aVomitted
p3029
aVone's
p3030
aVone-shot
p3031
aVone-third
p3032
aVonset
p3033
aVonsets
p3034
aVopened
p3035
aVopening
p3036
aVopenly
p3037
aVopens
p3038
aVopera
p3039
aVoperand
p3040
aVoperate
p3041
aVoperated
p3042
aVoperating
p3043
aVoperation
p3044
aVoperational
p3045
aVoperations
p3046
aVoperative
p3047
aVoperator
p3048
aVoperators
p3049
aVopinion
p3050
aVopinions
p3051
aVopponent
p3052
aVopponents
p3053
aVopportunities
p3054
aVopportunity
p3055
aVoppose
p3056
aVopposed
p3057
aVopposite
p3058
aVopposition
p3059
aVoptical
p3060
aVoptimal
p3061
aVoptimality
p3062
aVoptimum
p3063
aVorbit
p3064
aVorbits
p3065
aVorchestra
p3066
aVorder
p3067
aVordered
p3068
aVordering
p3069
aVorderly
p3070
aVorders
p3071
aVordinarily
p3072
aVordinary
p3073
aVorganic
p3074
aVorganification
p3075
aVorganisms
p3076
aVorganization
p3077
aVorganizations
p3078
aVorganize
p3079
aVorganized
p3080
aVoriental
p3081
aVorientation
p3082
aVoriented
p3083
aVorigin
p3084
aVoriginal
p3085
aVoriginally
p3086
aVorleans
p3087
aVorthography
p3088
aVorvis
p3089
aVossification
p3090
aVother
p3091
aVothers
p3092
aVotherwise
p3093
aVotter
p3094
aVought
p3095
aVourselves
p3096
aVoutcome
p3097
aVoutcomes
p3098
aVouter
p3099
aVoutlook
p3100
aVoutput
p3101
aVoutputs
p3102
aVoutset
p3103
aVoutside
p3104
aVoutstanding
p3105
aVover-all
p3106
aVovercome
p3107
aVovert
p3108
aVowned
p3109
aVowners
p3110
aVownership
p3111
aVoxidation
p3112
aVoxygen
p3113
aVpacific
p3114
aVpackage
p3115
aVpackaging
p3116
aVpacking
p3117
aVpages
p3118
aVpainful
p3119
aVpaint
p3120
aVpainted
p3121
aVpainters
p3122
aVpainting
p3123
aVpaintings
p3124
aVpaired
p3125
aVpairs
p3126
aVpalace
p3127
aVpalatability
p3128
aVpanel
p3129
aVpanels
p3130
aVpaper
p3131
aVpapers
p3132
aVparagraph
p3133
aVparallel
p3134
aVparamagnetic
p3135
aVparameter
p3136
aVparameters
p3137
aVparasympathetic
p3138
aVparent
p3139
aVparents
p3140
aVparis
p3141
aVparker
p3142
aVparking
p3143
aVparkway
p3144
aVpartial
p3145
aVpartially
p3146
aVparticipate
p3147
aVparticipating
p3148
aVparticipation
p3149
aVparticle
p3150
aVparticles
p3151
aVparticular
p3152
aVparticularly
p3153
aVparties
p3154
aVpartisan
p3155
aVpartly
p3156
aVpartners
p3157
aVparts
p3158
aVparty
p3159
aVparty's
p3160
aVpassage
p3161
aVpassages
p3162
aVpassed
p3163
aVpassenger
p3164
aVpassengers
p3165
aVpasses
p3166
aVpassing
p3167
aVpasted
p3168
aVpathological
p3169
aVpatient
p3170
aVpatient's
p3171
aVpatients
p3172
aVpattern
p3173
aVpatterns
p3174
aVpause
p3175
aVpaying
p3176
aVpayments
p3177
aVpeace
p3178
aVpeaceful
p3179
aVpeasants
p3180
aVpeculiar
p3181
aVpenalty
p3182
aVpencil
p3183
aVpending
p3184
aVpennsylvania
p3185
aVpentagon
p3186
aVpeople
p3187
aVpeople's
p3188
aVpeoples
p3189
aVperceive
p3190
aVpercent
p3191
aVpercentage
p3192
aVpercussion
p3193
aVpercussive
p3194
aVperfect
p3195
aVperfectly
p3196
aVperform
p3197
aVperformance
p3198
aVperformances
p3199
aVperformed
p3200
aVperformers
p3201
aVperhaps
p3202
aVperiod
p3203
aVperiodic
p3204
aVperiods
p3205
aVperipheral
p3206
aVperiphery
p3207
aVpermanent
p3208
aVpermanently
p3209
aVpermit
p3210
aVpermits
p3211
aVpermitted
p3212
aVpersistence
p3213
aVpersistent
p3214
aVpersists
p3215
aVperson
p3216
aVpersonal
p3217
aVpersonality
p3218
aVpersonally
p3219
aVpersonnel
p3220
aVpersons
p3221
aVperspective
p3222
aVpertains
p3223
aVpertinent
p3224
aVphase
p3225
aVphases
p3226
aVphenomena
p3227
aVphenomenon
p3228
aVphiladelphia
p3229
aVphilharmonic
p3230
aVphilosophic
p3231
aVphilosophical
p3232
aVphilosophy
p3233
aVphonemic
p3234
aVphonologic
p3235
aVphonology
p3236
aVphosphate
p3237
aVphosphor
p3238
aVphotocathode
p3239
aVphotochemical
p3240
aVphotographic
p3241
aVphotographs
p3242
aVphrase
p3243
aVphrases
p3244
aVphysical
p3245
aVphysics
p3246
aVphysiological
p3247
aVpianist
p3248
aVpiano
p3249
aVpicasso
p3250
aVpicked
p3251
aVpicture
p3252
aVpictures
p3253
aVpiece
p3254
aVpieces
p3255
aVpigment
p3256
aVpilot
p3257
aVpimen
p3258
aVpip's
p3259
aVpitch
p3260
aVpituitary
p3261
aVplace
p3262
aVplaced
p3263
aVplacement
p3264
aVplaces
p3265
aVplacing
p3266
aVplain
p3267
aVplainly
p3268
aVplaintiff
p3269
aVplane
p3270
aVplanes
p3271
aVplanet
p3272
aVplanetary
p3273
aVplanets
p3274
aVplanned
p3275
aVplanners
p3276
aVplanning
p3277
aVplans
p3278
aVplant
p3279
aVplants
p3280
aVplasma
p3281
aVplastics
p3282
aVplate
p3283
aVplates
p3284
aVplatform
p3285
aVplayed
p3286
aVplayhouse
p3287
aVplaying
p3288
aVplays
p3289
aVpleasant
p3290
aVplease
p3291
aVpleased
p3292
aVpleasing
p3293
aVpleasure
p3294
aVplenty
p3295
aVpleura
p3296
aVpleural
p3297
aVplotted
p3298
aVpocket
p3299
aVpodger
p3300
aVpoems
p3301
aVpoetic
p3302
aVpoetry
p3303
aVpoets
p3304
aVpoint
p3305
aVpointed
p3306
aVpointing
p3307
aVpoints
p3308
aVpoland
p3309
aVpoles
p3310
aVpolice
p3311
aVpolicies
p3312
aVpolicy
p3313
aVpolish
p3314
aVpolitical
p3315
aVpolitically
p3316
aVpoliticians
p3317
aVpolitics
p3318
aVpollen
p3319
aVpollock
p3320
aVpolyether
p3321
aVpolymerization
p3322
aVpolynomial
p3323
aVpolynomials
p3324
aVpolyphosphates
p3325
aVponds
p3326
aVpopular
p3327
aVpopulation
p3328
aVpopulations
p3329
aVporous
p3330
aVportago
p3331
aVportion
p3332
aVportions
p3333
aVposition
p3334
aVpositions
p3335
aVpositive
p3336
aVpositivist
p3337
aVposse
p3338
aVpossess
p3339
aVpossesses
p3340
aVpossibilities
p3341
aVpossibility
p3342
aVpossible
p3343
aVpossibly
p3344
aVpost-war
p3345
aVposterior
p3346
aVpostwar
p3347
aVpotassium
p3348
aVpotential
p3349
aVpotters
p3350
aVpottery
p3351
aVpounds
p3352
aVpoured
p3353
aVpowder
p3354
aVpower
p3355
aVpowerful
p3356
aVpowers
p3357
aVpoynting-robertson
p3358
aVpozzatti
p3359
aVpractical
p3360
aVpractically
p3361
aVpractice
p3362
aVpracticed
p3363
aVpractices
p3364
aVprairie
p3365
aVpraise
p3366
aVprayer
p3367
aVpreceded
p3368
aVpreceding
p3369
aVprecipitated
p3370
aVprecise
p3371
aVprecisely
p3372
aVprecision
p3373
aVpredicted
p3374
aVpredominantly
p3375
aVprefer
p3376
aVpreferably
p3377
aVpreferred
p3378
aVpregnancy
p3379
aVpreliminary
p3380
aVpremise
p3381
aVpreparation
p3382
aVpreparations
p3383
aVprepare
p3384
aVprepared
p3385
aVpresence
p3386
aVpresent
p3387
aVpresentation
p3388
aVpresentations
p3389
aVpresented
p3390
aVpresently
p3391
aVpresents
p3392
aVpreservation
p3393
aVpreserve
p3394
aVpresident
p3395
aVpresident's
p3396
aVpresidential
p3397
aVpress
p3398
aVpressing
p3399
aVpressure
p3400
aVpressures
p3401
aVprestige
p3402
aVpresumably
p3403
aVpresumed
p3404
aVpretty
p3405
aVprevails
p3406
aVprevent
p3407
aVprevented
p3408
aVpreventive
p3409
aVprevious
p3410
aVpreviously
p3411
aVprice
p3412
aVprices
p3413
aVpride
p3414
aVprimarily
p3415
aVprimary
p3416
aVprime
p3417
aVprimitive
p3418
aVprince
p3419
aVprincipal
p3420
aVprinciple
p3421
aVprinciples
p3422
aVprint
p3423
aVprior
p3424
aVpriority
p3425
aVprison
p3426
aVprivate
p3427
aVprivilege
p3428
aVprize
p3429
aVpro-western
p3430
aVprobabilities
p3431
aVprobability
p3432
aVprobable
p3433
aVprobably
p3434
aVproblem
p3435
aVproblems
p3436
aVprocedure
p3437
aVprocedures
p3438
aVproceed
p3439
aVproceeding
p3440
aVproceedings
p3441
aVprocess
p3442
aVprocessed
p3443
aVprocesses
p3444
aVprocessing
p3445
aVproduce
p3446
aVproduced
p3447
aVproduces
p3448
aVproducing
p3449
aVproduct
p3450
aVproduction
p3451
aVproductive
p3452
aVproductivity
p3453
aVproducts
p3454
aVprofession
p3455
aVprofessional
p3456
aVprofessor
p3457
aVprofile
p3458
aVprofit
p3459
aVprofits
p3460
aVprofound
p3461
aVprogram
p3462
aVprogramming
p3463
aVprograms
p3464
aVprogress
p3465
aVprogressed
p3466
aVprogressive
p3467
aVproject
p3468
aVprojection
p3469
aVprojections
p3470
aVprojects
p3471
aVprolonged
p3472
aVprominent
p3473
aVprominently
p3474
aVpromise
p3475
aVpromised
p3476
aVpromises
p3477
aVpromote
p3478
aVproof
p3479
aVpropaganda
p3480
aVproper
p3481
aVproperly
p3482
aVproperties
p3483
aVproperty
p3484
aVproportion
p3485
aVproportional
p3486
aVproportions
p3487
aVproposal
p3488
aVproposals
p3489
aVpropose
p3490
aVproposed
p3491
aVproposition
p3492
aVprospect
p3493
aVprospective
p3494
aVprospects
p3495
aVprosperity
p3496
aVproteases
p3497
aVprotect
p3498
aVprotected
p3499
aVprotection
p3500
aVprotein
p3501
aVproteins
p3502
aVprotest
p3503
aVprotozoa
p3504
aVproud
p3505
aVprove
p3506
aVproved
p3507
aVprovide
p3508
aVprovided
p3509
aVprovidence
p3510
aVprovides
p3511
aVproviding
p3512
aVprovision
p3513
aVprovisions
p3514
aVpseudophloem
p3515
aVpsithyrus
p3516
aVpsychological
p3517
aVpublic
p3518
aVpublic-limit
p3519
aVpublication
p3520
aVpublicly
p3521
aVpublished
p3522
aVpulled
p3523
aVpulls
p3524
aVpulmonary
p3525
aVpupil
p3526
aVpupils
p3527
aVpurchase
p3528
aVpurchased
p3529
aVpurely
p3530
aVpurified
p3531
aVpurity
p3532
aVpurple
p3533
aVpurpose
p3534
aVpurposes
p3535
aVpursuit
p3536
aVpushed
p3537
aVputting
p3538
aVpyrex
p3539
aVpython
p3540
aVquadric
p3541
aVqualify
p3542
aVqualities
p3543
aVquality
p3544
aVquantitative
p3545
aVquantities
p3546
aVquantity
p3547
aVquantum
p3548
aVquarter
p3549
aVqueen
p3550
aVqueens
p3551
aVquest
p3552
aVquestion
p3553
aVquestionnaire
p3554
aVquestionnaires
p3555
aVquestions
p3556
aVquick
p3557
aVquickly
p3558
aVquiet
p3559
aVquietly
p3560
aVquite
p3561
aVquote
p3562
aVquoted
p3563
aVr-stage
p3564
aVrabbit
p3565
aVraces
p3566
aVracial
p3567
aVracing
p3568
aVradar
p3569
aVradiation
p3570
aVradical
p3571
aVradically
p3572
aVradio
p3573
aVradioactive
p3574
aVradiopasteurization
p3575
aVradiosterilization
p3576
aVradius
p3577
aVrailroad
p3578
aVraise
p3579
aVraised
p3580
aVraising
p3581
aVranch
p3582
aVrandom
p3583
aVrange
p3584
aVranged
p3585
aVranges
p3586
aVranging
p3587
aVrangoni
p3588
aVrapid
p3589
aVrapidly
p3590
aVrarely
p3591
aVrates
p3592
aVrather
p3593
aVrating
p3594
aVratings
p3595
aVratio
p3596
aVrational
p3597
aVratios
p3598
aVrayburn
p3599
aVreach
p3600
aVreached
p3601
aVreaches
p3602
aVreaching
p3603
aVreact
p3604
aVreaction
p3605
aVreactions
p3606
aVreactivity
p3607
aVreactor
p3608
aVreactors
p3609
aVreader
p3610
aVreaders
p3611
aVreadily
p3612
aVreadiness
p3613
aVreading
p3614
aVreadings
p3615
aVreads
p3616
aVready
p3617
aVrealism
p3618
aVrealistic
p3619
aVreality
p3620
aVrealization
p3621
aVrealize
p3622
aVrealized
p3623
aVreally
p3624
aVrealm
p3625
aVreason
p3626
aVreasonable
p3627
aVreasonably
p3628
aVreasoning
p3629
aVreasons
p3630
aVreassuring
p3631
aVrecall
p3632
aVrecalled
p3633
aVrecalls
p3634
aVreceive
p3635
aVreceived
p3636
aVreceiving
p3637
aVrecent
p3638
aVrecently
p3639
aVreception
p3640
aVreciprocal
p3641
aVrecital
p3642
aVrecognition
p3643
aVrecognize
p3644
aVrecognized
p3645
aVrecognizes
p3646
aVrecommendations
p3647
aVrecommended
p3648
aVrecord
p3649
aVrecorded
p3650
aVrecording
p3651
aVrecordings
p3652
aVrecords
p3653
aVrecovery
p3654
aVreduce
p3655
aVreduced
p3656
aVreducing
p3657
aVreduction
p3658
aVrefer
p3659
aVreference
p3660
aVreferences
p3661
aVreferral
p3662
aVreferrals
p3663
aVreferred
p3664
aVreferring
p3665
aVrefers
p3666
aVreflect
p3667
aVreflected
p3668
aVreflection
p3669
aVreform
p3670
aVrefrigeration
p3671
aVrefund
p3672
aVrefusal
p3673
aVrefuse
p3674
aVrefused
p3675
aVregard
p3676
aVregarded
p3677
aVregarding
p3678
aVregardless
p3679
aVregime
p3680
aVregion
p3681
aVregional
p3682
aVregions
p3683
aVregister
p3684
aVregistered
p3685
aVregistration
p3686
aVregression
p3687
aVregular
p3688
aVregularly
p3689
aVregulation
p3690
aVregulations
p3691
aVregulus
p3692
aVrejected
p3693
aVrejects
p3694
aVrelated
p3695
aVrelating
p3696
aVrelation
p3697
aVrelations
p3698
aVrelationship
p3699
aVrelationships
p3700
aVrelative
p3701
aVrelatively
p3702
aVrelatives
p3703
aVrelax
p3704
aVrelease
p3705
aVreleased
p3706
aVrelevance
p3707
aVrelevant
p3708
aVreliable
p3709
aVrelied
p3710
aVrelief
p3711
aVreligion
p3712
aVreligions
p3713
aVreligious
p3714
aVreluctant
p3715
aVremain
p3716
aVremainder
p3717
aVremained
p3718
aVremaining
p3719
aVremains
p3720
aVremark
p3721
aVremarkable
p3722
aVremarkably
p3723
aVremarked
p3724
aVremarks
p3725
aVremarque's
p3726
aVremember
p3727
aVremembered
p3728
aVremembering
p3729
aVremembers
p3730
aVremind
p3731
aVremote
p3732
aVremoval
p3733
aVremove
p3734
aVremoved
p3735
aVremoves
p3736
aVrenaissance
p3737
aVrendered
p3738
aVrenewed
p3739
aVreorganization
p3740
aVrepeal
p3741
aVrepeat
p3742
aVrepeated
p3743
aVrepeatedly
p3744
aVrepeating
p3745
aVrepetition
p3746
aVreplace
p3747
aVreplaced
p3748
aVreplacement
p3749
aVreplaces
p3750
aVreplied
p3751
aVreply
p3752
aVreport
p3753
aVreported
p3754
aVreporters
p3755
aVreporting
p3756
aVreports
p3757
aVrepresent
p3758
aVrepresentation
p3759
aVrepresentations
p3760
aVrepresentative
p3761
aVrepresentatives
p3762
aVrepresented
p3763
aVrepresenting
p3764
aVrepresents
p3765
aVrepublic
p3766
aVrepublican
p3767
aVrepublicans
p3768
aVreputation
p3769
aVrequest
p3770
aVrequire
p3771
aVrequired
p3772
aVrequirement
p3773
aVrequirements
p3774
aVrequires
p3775
aVrequiring
p3776
aVresearch
p3777
aVresemblance
p3778
aVresentment
p3779
aVreserve
p3780
aVreserved
p3781
aVreservoir
p3782
aVresidence
p3783
aVresidential
p3784
aVresidents
p3785
aVresidue
p3786
aVresist
p3787
aVresistance
p3788
aVresolution
p3789
aVresolved
p3790
aVresonance
p3791
aVresources
p3792
aVrespect
p3793
aVrespectable
p3794
aVrespective
p3795
aVrespectively
p3796
aVrespects
p3797
aVrespiratory
p3798
aVrespond
p3799
aVrespondent
p3800
aVrespondents
p3801
aVrespondents'
p3802
aVresponds
p3803
aVresponse
p3804
aVresponses
p3805
aVresponsibility
p3806
aVresponsible
p3807
aVrested
p3808
aVresting
p3809
aVrestoration
p3810
aVrestorative
p3811
aVrestored
p3812
aVrestrict
p3813
aVrestricted
p3814
aVrestrictions
p3815
aVrests
p3816
aVresult
p3817
aVresultant
p3818
aVresulted
p3819
aVresulting
p3820
aVresults
p3821
aVresume
p3822
aVresumed
p3823
aVresumption
p3824
aVretail
p3825
aVretained
p3826
aVretains
p3827
aVretarded
p3828
aVretention
p3829
aVretired
p3830
aVretrieved
p3831
aVreturn
p3832
aVreturned
p3833
aVreturns
p3834
aVreunion
p3835
aVreveal
p3836
aVrevealed
p3837
aVrevealing
p3838
aVreveals
p3839
aVrevenue
p3840
aVrevenues
p3841
aVreverse
p3842
aVreversible
p3843
aVreversing
p3844
aVreview
p3845
aVreviewed
p3846
aVreviewing
p3847
aVrevised
p3848
aVrevisions
p3849
aVrevolution
p3850
aVrevulsion
p3851
aVrhode
p3852
aVrhythmic
p3853
aVrichard
p3854
aVrichards
p3855
aVriding
p3856
aVright
p3857
aVrights
p3858
aVrigid
p3859
aVrinse
p3860
aVrinsing
p3861
aVrises
p3862
aVrising
p3863
aVrival
p3864
aVriver
p3865
aVroads
p3866
aVrobert
p3867
aVrockefeller
p3868
aVrockets
p3869
aVrococo
p3870
aVrodgers
p3871
aVroleplaying
p3872
aVroles
p3873
aVromantic
p3874
aVroosevelt
p3875
aVroots
p3876
aVrotating
p3877
aVrotation
p3878
aVrotor
p3879
aVrough
p3880
aVroughly
p3881
aVround
p3882
aVrousing
p3883
aVroute
p3884
aVroutine
p3885
aVroyal
p3886
aVruanda-urundi
p3887
aVruled
p3888
aVrules
p3889
aVruling
p3890
aVrunning
p3891
aVrural
p3892
aVrushed
p3893
aVrussell
p3894
aVrussell's
p3895
aVrussia
p3896
aVrussia's
p3897
aVrussian
p3898
aVrussians
p3899
aVsacred
p3900
aVsacrifice
p3901
aVsafety
p3902
aVsalary
p3903
aVsales
p3904
aVsalesmen
p3905
aVsaline
p3906
aVsample
p3907
aVsamples
p3908
aVsampling
p3909
aVsamuel
p3910
aVsanctions
p3911
aVsands
p3912
aVsanitation
p3913
aVsansom
p3914
aVsatisfactorily
p3915
aVsatisfactory
p3916
aVsatisfied
p3917
aVsatisfy
p3918
aVsatisfying
p3919
aVsaturated
p3920
aVsaturday
p3921
aVsaved
p3922
aVsaving
p3923
aVsaying
p3924
aVscale
p3925
aVscandals
p3926
aVscattered
p3927
aVscene
p3928
aVscenery
p3929
aVscenes
p3930
aVschedule
p3931
aVscheduled
p3932
aVscheme
p3933
aVschizophrenic
p3934
aVscholars
p3935
aVscholarship
p3936
aVschool
p3937
aVschools
p3938
aVschwarzkopf
p3939
aVscience
p3940
aVsciences
p3941
aVscientific
p3942
aVscientists
p3943
aVscope
p3944
aVscore
p3945
aVscores
p3946
aVscout
p3947
aVscreen
p3948
aVscreens
p3949
aVscrutiny
p3950
aVsealed
p3951
aVsearch
p3952
aVsearching
p3953
aVseason
p3954
aVsecant
p3955
aVsecants
p3956
aVsecond
p3957
aVsecondary
p3958
aVsecret
p3959
aVsecretary
p3960
aVsecretary's
p3961
aVsection
p3962
aVsections
p3963
aVsectors
p3964
aVsecure
p3965
aVsecurities
p3966
aVsecurity
p3967
aVseeing
p3968
aVseeking
p3969
aVseemed
p3970
aVseemingly
p3971
aVseems
p3972
aVsegregated
p3973
aVseigner
p3974
aVseldom
p3975
aVselect
p3976
aVselected
p3977
aVselecting
p3978
aVselection
p3979
aVselective
p3980
aVselling
p3981
aVsemantic
p3982
aVsenate
p3983
aVsenator
p3984
aVsense
p3985
aVsensible
p3986
aVsensitive
p3987
aVsensitivity
p3988
aVsensors
p3989
aVsensory
p3990
aVsentence
p3991
aVsentences
p3992
aVsentiment
p3993
aVsentimental
p3994
aVseparate
p3995
aVseparated
p3996
aVseparately
p3997
aVsept.
p3998
aVsepta
p3999
aVseptember
p4000
aVsequence
p4001
aVseries
p4002
aVserious
p4003
aVseriously
p4004
aVserum
p4005
aVservant
p4006
aVserve
p4007
aVserved
p4008
aVserves
p4009
aVservice
p4010
aVservices
p4011
aVserving
p4012
aVservo
p4013
aVsession
p4014
aVsessions
p4015
aVsetting
p4016
aVsettings
p4017
aVsettle
p4018
aVsettled
p4019
aVseven
p4020
aVseventh
p4021
aVseveral
p4022
aVsevere
p4023
aVseverely
p4024
aVsewage
p4025
aVsewer
p4026
aVsexual
p4027
aVshadow
p4028
aVshadows
p4029
aVshaft
p4030
aVshakes
p4031
aVshakespeare
p4032
aVshall
p4033
aVshape
p4034
aVshapes
p4035
aVshare
p4036
aVshared
p4037
aVshares
p4038
aVsharp
p4039
aVsharply
p4040
aVshe's
p4041
aVshear
p4042
aVshearing
p4043
aVsheer
p4044
aVsheet
p4045
aVsheets
p4046
aVshell
p4047
aVshells
p4048
aVshelter
p4049
aVshelters
p4050
aVshield
p4051
aVshift
p4052
aVshifted
p4053
aVshifting
p4054
aVshifts
p4055
aVships
p4056
aVshock
p4057
aVshoes
p4058
aVshopping
p4059
aVshore
p4060
aVshort
p4061
aVshorter
p4062
aVshortly
p4063
aVshots
p4064
aVshould
p4065
aVshoulder
p4066
aVshouldn't
p4067
aVshouting
p4068
aVshowed
p4069
aVshowing
p4070
aVshown
p4071
aVshows
p4072
aVshunts
p4073
aVsiddo
p4074
aVsides
p4075
aVsight
p4076
aVsignal
p4077
aVsigned
p4078
aVsignificance
p4079
aVsignificant
p4080
aVsignificantly
p4081
aVsigns
p4082
aVsilence
p4083
aVsilver
p4084
aVsimilar
p4085
aVsimilarly
p4086
aVsimple
p4087
aVsimpler
p4088
aVsimplify
p4089
aVsimply
p4090
aVsimulated
p4091
aVsimultaneously
p4092
aVsince
p4093
aVsincere
p4094
aVsincerity
p4095
aVsinger
p4096
aVsingers
p4097
aVsinging
p4098
aVsingle
p4099
aVsingle-valued
p4100
aVsings
p4101
aVsingular
p4102
aVsitting
p4103
aVsituation
p4104
aVsituations
p4105
aVsixteen
p4106
aVsixth
p4107
aVsixties
p4108
aVsizable
p4109
aVsizes
p4110
aVskeletal
p4111
aVsketches
p4112
aVskies
p4113
aVskiff
p4114
aVskill
p4115
aVskilled
p4116
aVskills
p4117
aVskolovsky
p4118
aVslavery
p4119
aVslaves
p4120
aVsleep
p4121
aVsleeping
p4122
aVslight
p4123
aVslightly
p4124
aVsloan
p4125
aVsloan's
p4126
aVsloanaker
p4127
aVslope
p4128
aVslowing
p4129
aVslowly
p4130
aVsmall
p4131
aVsmaller
p4132
aVsmallest
p4133
aVsmell
p4134
aVsmile
p4135
aVsmiled
p4136
aVsmith
p4137
aVsmooth
p4138
aVsnake
p4139
aVsnakes
p4140
aVso-called
p4141
aVsober
p4142
aVsocial
p4143
aVsocial-class
p4144
aVsocialism
p4145
aVsocieties
p4146
aVsociety
p4147
aVsociological
p4148
aVsociology
p4149
aVsodium
p4150
aVsoiled
p4151
aVsoils
p4152
aVsolar
p4153
aVsoldier
p4154
aVsoldiers
p4155
aVsolely
p4156
aVsolid
p4157
aVsolidarity
p4158
aVsolidly
p4159
aVsolids
p4160
aVsoloist
p4161
aVsolution
p4162
aVsolutions
p4163
aVsolve
p4164
aVsolved
p4165
aVsolvent
p4166
aVsomebody
p4167
aVsomehow
p4168
aVsomeone
p4169
aVsomething
p4170
aVsometimes
p4171
aVsomewhat
p4172
aVsomewhere
p4173
aVsonata
p4174
aVsonatas
p4175
aVsongs
p4176
aVsophisticated
p4177
aVsoprano
p4178
aVsorbed
p4179
aVsought
p4180
aVsound
p4181
aVsounds
p4182
aVsource
p4183
aVsources
p4184
aVsouth
p4185
aVsoutheast
p4186
aVsouthern
p4187
aVsovereign
p4188
aVsovereignty
p4189
aVsoviet
p4190
aVsoviets
p4191
aVspace
p4192
aVspaces
p4193
aVspanish
p4194
aVspatial
p4195
aVspeak
p4196
aVspeaker
p4197
aVspeaking
p4198
aVspeaks
p4199
aVspecial
p4200
aVspecialists
p4201
aVspecialized
p4202
aVspecies
p4203
aVspecific
p4204
aVspecifically
p4205
aVspecificity
p4206
aVspecified
p4207
aVspecify
p4208
aVspecimen
p4209
aVspecimens
p4210
aVspectacle
p4211
aVspectra
p4212
aVspectrum
p4213
aVspeculate
p4214
aVspeech
p4215
aVspeeches
p4216
aVspeed
p4217
aVspeeds
p4218
aVspend
p4219
aVspending
p4220
aVspent
p4221
aVsphere
p4222
aVspherical
p4223
aVspirit
p4224
aVspirits
p4225
aVspiritual
p4226
aVspite
p4227
aVsplit
p4228
aVspoilage
p4229
aVspoke
p4230
aVspoken
p4231
aVspokesmen
p4232
aVsponsor
p4233
aVspontaneity
p4234
aVspontaneous
p4235
aVspots
p4236
aVspread
p4237
aVspreading
p4238
aVspreads
p4239
aVspring
p4240
aVsprouting
p4241
aVsprung
p4242
aVsquare
p4243
aVsquares
p4244
aVstability
p4245
aVstable
p4246
aVstadium
p4247
aVstaff
p4248
aVstage
p4249
aVstaged
p4250
aVstages
p4251
aVstained
p4252
aVstaining
p4253
aVstalin
p4254
aVstand
p4255
aVstandard
p4256
aVstandards
p4257
aVstanding
p4258
aVstands
p4259
aVstars
p4260
aVstart
p4261
aVstarted
p4262
aVstarting
p4263
aVstarts
p4264
aVstate
p4265
aVstate's
p4266
aVstated
p4267
aVstatement
p4268
aVstatements
p4269
aVstates
p4270
aVstatewide
p4271
aVstatic
p4272
aVstating
p4273
aVstation
p4274
aVstations
p4275
aVstatistical
p4276
aVstatistics
p4277
aVstatus
p4278
aVstatute
p4279
aVstatutory
p4280
aVstayed
p4281
aVstaying
p4282
aVsteady
p4283
aVsteam
p4284
aVsteel
p4285
aVstems
p4286
aVstepping
p4287
aVsteps
p4288
aVstereo
p4289
aVstereotype
p4290
aVsterile
p4291
aVsterilization
p4292
aVstevenson
p4293
aVstick
p4294
aVstill
p4295
aVstimulation
p4296
aVstimulus
p4297
aVstock
p4298
aVstockholders
p4299
aVstone
p4300
aVstood
p4301
aVstopped
p4302
aVstorage
p4303
aVstore
p4304
aVstored
p4305
aVstores
p4306
aVstories
p4307
aVstorm
p4308
aVstory
p4309
aVstraight
p4310
aVstrain
p4311
aVstrange
p4312
aVstranger
p4313
aVstrategy
p4314
aVstream
p4315
aVstreet
p4316
aVstreets
p4317
aVstrength
p4318
aVstrengthen
p4319
aVstress
p4320
aVstressed
p4321
aVstresses
p4322
aVstretching
p4323
aVstrictly
p4324
aVstrike
p4325
aVstrikes
p4326
aVstriking
p4327
aVstrikingly
p4328
aVstrings
p4329
aVstrip
p4330
aVstrips
p4331
aVstrong
p4332
aVstronger
p4333
aVstrongest
p4334
aVstrongly
p4335
aVstruck
p4336
aVstructural
p4337
aVstructure
p4338
aVstructured
p4339
aVstructures
p4340
aVstruggle
p4341
aVstuart
p4342
aVstudent
p4343
aVstudents
p4344
aVstudied
p4345
aVstudies
p4346
aVstudy
p4347
aVstudying
p4348
aVstunning
p4349
aVstupid
p4350
aVstyle
p4351
aVstyles
p4352
aVsubdivision
p4353
aVsubgroups
p4354
aVsubject
p4355
aVsubjected
p4356
aVsubjective
p4357
aVsubjects
p4358
aVsubmarine
p4359
aVsubmarines
p4360
aVsubmit
p4361
aVsubmitted
p4362
aVsubsequent
p4363
aVsubsequently
p4364
aVsubspace
p4365
aVsubstance
p4366
aVsubstances
p4367
aVsubstantial
p4368
aVsubstantially
p4369
aVsubstitute
p4370
aVsubstituted
p4371
aVsubstrate
p4372
aVsubsystems
p4373
aVsubtle
p4374
aVsuburban
p4375
aVsuburbs
p4376
aVsucceeded
p4377
aVsuccess
p4378
aVsuccesses
p4379
aVsuccessful
p4380
aVsuccessfully
p4381
aVsuccession
p4382
aVsuccessive
p4383
aVsuccessor
p4384
aVsudden
p4385
aVsuddenly
p4386
aVsuffer
p4387
aVsuffered
p4388
aVsuffering
p4389
aVsufficient
p4390
aVsufficiently
p4391
aVsuggest
p4392
aVsuggested
p4393
aVsuggesting
p4394
aVsuggestion
p4395
aVsuggestions
p4396
aVsuggests
p4397
aVsuitable
p4398
aVsuited
p4399
aVsuits
p4400
aVsummarized
p4401
aVsummary
p4402
aVsummer
p4403
aVsunday
p4404
aVsunny
p4405
aVsuperb
p4406
aVsuperbly
p4407
aVsuperimposed
p4408
aVsuperior
p4409
aVsuperiority
p4410
aVsupernatural
p4411
aVsupervision
p4412
aVsupper
p4413
aVsupplement
p4414
aVsupplementary
p4415
aVsupplied
p4416
aVsupplies
p4417
aVsupply
p4418
aVsupplying
p4419
aVsupport
p4420
aVsupported
p4421
aVsupporting
p4422
aVsupportive
p4423
aVsupports
p4424
aVsuppose
p4425
aVsupposed
p4426
aVsupposedly
p4427
aVsupreme
p4428
aVsurely
p4429
aVsurface
p4430
aVsurface-active
p4431
aVsurfaces
p4432
aVsurplus
p4433
aVsurprise
p4434
aVsurprised
p4435
aVsurprising
p4436
aVsurrender
p4437
aVsurrounding
p4438
aVsurvey
p4439
aVsurveying
p4440
aVsurvival
p4441
aVsurvive
p4442
aVsurvived
p4443
aVsuspect
p4444
aVsuspended
p4445
aVsuspension
p4446
aVsuspicion
p4447
aVsustained
p4448
aVsutherland
p4449
aVswadesh
p4450
aVsweet
p4451
aVswept
p4452
aVswing
p4453
aVswitch
p4454
aVswitches
p4455
aVswung
p4456
aVsyllables
p4457
aVsymbol
p4458
aVsymbolic
p4459
aVsymbols
p4460
aVsymmetric
p4461
aVsymmetry
p4462
aVsympathetic
p4463
aVsympathetically
p4464
aVsympathy
p4465
aVsymphony
p4466
aVsymptoms
p4467
aVsynthesis
p4468
aVsynthetic
p4469
aVsystem
p4470
aVsystematic
p4471
aVsystematically
p4472
aVsystems
p4473
aVtable
p4474
aVtables
p4475
aVtactics
p4476
aVtactual
p4477
aVtaiwan
p4478
aVtaken
p4479
aVtakes
p4480
aVtaking
p4481
aVtalent
p4482
aVtalents
p4483
aVtalked
p4484
aVtalking
p4485
aVtammany
p4486
aVtangent
p4487
aVtangents
p4488
aVtarget
p4489
aVtargets
p4490
aVtasks
p4491
aVtaste
p4492
aVtaught
p4493
aVtax-free
p4494
aVtaxes
p4495
aVtaxpayers
p4496
aVtaylor
p4497
aVteach
p4498
aVteacher
p4499
aVteachers
p4500
aVteaching
p4501
aVtechnical
p4502
aVtechnically
p4503
aVtechnicians
p4504
aVtechnique
p4505
aVtechniques
p4506
aVtechnology
p4507
aVteeth
p4508
aVtektites
p4509
aVtelegraph
p4510
aVtelegraphers
p4511
aVtelephone
p4512
aVtelevision
p4513
aVtelling
p4514
aVtells
p4515
aVtemper
p4516
aVtemperature
p4517
aVtemperatures
p4518
aVtemplate
p4519
aVtemporarily
p4520
aVtemporary
p4521
aVtended
p4522
aVtendency
p4523
aVtends
p4524
aVtennessee
p4525
aVtense
p4526
aVtension
p4527
aVtentative
p4528
aVterminal
p4529
aVterminate
p4530
aVterms
p4531
aVterrain
p4532
aVterritory
p4533
aVterror
p4534
aVtestament
p4535
aVtested
p4536
aVtesting
p4537
aVtests
p4538
aVtetrachloride
p4539
aVtexas
p4540
aVtext-form
p4541
aVtextures
p4542
aVthank
p4543
aVthanks
p4544
aVthant
p4545
aVthat's
p4546
aVtheater
p4547
aVtheatre
p4548
aVtheir
p4549
aVtheirs
p4550
aVtheme
p4551
aVthemselves
p4552
aVtheorem
p4553
aVtheoretical
p4554
aVtheories
p4555
aVtheory
p4556
aVtherapeutic
p4557
aVtherapist
p4558
aVtherapy
p4559
aVthere
p4560
aVthere's
p4561
aVthereafter
p4562
aVthereby
p4563
aVtherefore
p4564
aVthermal
p4565
aVthese
p4566
aVthey're
p4567
aVthick
p4568
aVthickness
p4569
aVthing
p4570
aVthings
p4571
aVthink
p4572
aVthinking
p4573
aVthinks
p4574
aVthird
p4575
aVthirties
p4576
aVthirty
p4577
aVthomas
p4578
aVthomas's
p4579
aVthorough
p4580
aVthoroughly
p4581
aVthose
p4582
aVthough
p4583
aVthought
p4584
aVthoughts
p4585
aVthousand
p4586
aVthousands
p4587
aVthreat
p4588
aVthreatened
p4589
aVthreatening
p4590
aVthree
p4591
aVthree-dimensional
p4592
aVthreshold
p4593
aVthrew
p4594
aVthroat
p4595
aVthrough
p4596
aVthroughout
p4597
aVthrowing
p4598
aVthrust
p4599
aVthurber
p4600
aVthyroglobulin
p4601
aVthyroid
p4602
aVthyroxine
p4603
aVtibet
p4604
aVtimes
p4605
aVtired
p4606
aVtissue
p4607
aVtissues
p4608
aVtitle
p4609
aVtitles
p4610
aVtoday
p4611
aVtoday's
p4612
aVtogether
p4613
aVtonal
p4614
aVtones
p4615
aVtopical
p4616
aVtorque
p4617
aVtorquer
p4618
aVtorquers
p4619
aVtossed
p4620
aVtotal
p4621
aVtotally
p4622
aVtouch
p4623
aVtouched
p4624
aVtouches
p4625
aVtough
p4626
aVtoward
p4627
aVtowards
p4628
aVtowns
p4629
aVtrace
p4630
aVtracing
p4631
aVtrack
p4632
aVtract
p4633
aVtrade
p4634
aVtraders
p4635
aVtrades
p4636
aVtrading
p4637
aVtradition
p4638
aVtraditional
p4639
aVtraditionally
p4640
aVtraffic
p4641
aVtragedy
p4642
aVtragic
p4643
aVtrain
p4644
aVtrained
p4645
aVtraining
p4646
aVtransfer
p4647
aVtransferor
p4648
aVtransferred
p4649
aVtransfers
p4650
aVtransformation
p4651
aVtransformed
p4652
aVtransit
p4653
aVtransition
p4654
aVtranslated
p4655
aVtranslation
p4656
aVtransmission
p4657
aVtransport
p4658
aVtransportation
p4659
aVtravel
p4660
aVtreasury
p4661
aVtreat
p4662
aVtreated
p4663
aVtreating
p4664
aVtreatment
p4665
aVtreatments
p4666
aVtreats
p4667
aVtreaty
p4668
aVtrees
p4669
aVtremendous
p4670
aVtrend
p4671
aVtrends
p4672
aVtrial
p4673
aVtrials
p4674
aVtribute
p4675
aVtried
p4676
aVtroops
p4677
aVtropical
p4678
aVtrouble
p4679
aVtroubled
p4680
aVtroubles
p4681
aVtroublesome
p4682
aVtruck
p4683
aVtrucks
p4684
aVtrujillo
p4685
aVtruly
p4686
aVtruman
p4687
aVtrust
p4688
aVtrustees
p4689
aVtruth
p4690
aVtrying
p4691
aVtubes
p4692
aVtuesday
p4693
aVtumor
p4694
aVtumors
p4695
aVtungsten
p4696
aVturned
p4697
aVturning
p4698
aVturns
p4699
aVturtle
p4700
aVtwelve
p4701
aVtwenty
p4702
aVtwenty-five
p4703
aVtwice
p4704
aVtwo-digit
p4705
aVtypes
p4706
aVtypical
p4707
aVtypically
p4708
aVu.n.f.p.
p4709
aVu.s.s.r.
p4710
aVultimate
p4711
aVultracentrifugation
p4712
aVunable
p4713
aVunaware
p4714
aVuncertain
p4715
aVuncertainty
p4716
aVuncomfortable
p4717
aVunconscious
p4718
aVunder
p4719
aVundergone
p4720
aVunderlying
p4721
aVunderstand
p4722
aVunderstanding
p4723
aVunderstood
p4724
aVundertaken
p4725
aVundoubtedly
p4726
aVundue
p4727
aVunemployed
p4728
aVunemployment
p4729
aVunequivocally
p4730
aVunexpected
p4731
aVunfamiliar
p4732
aVunfortunate
p4733
aVunfortunately
p4734
aVunhappy
p4735
aVunified
p4736
aVuniform
p4737
aVunimportant
p4738
aVunion
p4739
aVunions
p4740
aVunique
p4741
aVuniquely
p4742
aVunited
p4743
aVunits
p4744
aVunity
p4745
aVuniversal
p4746
aVuniverse
p4747
aVuniversities
p4748
aVuniversity
p4749
aVunknown
p4750
aVunless
p4751
aVunlike
p4752
aVunlikely
p4753
aVunnatural
p4754
aVunnecessary
p4755
aVunsatisfactory
p4756
aVunstable
p4757
aVunstructured
p4758
aVuntil
p4759
aVunusual
p4760
aVupper
p4761
aVupper-middle-class
p4762
aVuptake
p4763
aVupward
p4764
aVurban
p4765
aVurethane
p4766
aVurged
p4767
aVusage
p4768
aVuseful
p4769
aVusefulness
p4770
aVusing
p4771
aVusual
p4772
aVusually
p4773
aVutility
p4774
aVutilized
p4775
aVutopia
p4776
aVutopian
p4777
aVvacant
p4778
aVvacation
p4779
aVvacuum
p4780
aVvague
p4781
aVvalid
p4782
aVvalidity
p4783
aVvalley
p4784
aVvaluable
p4785
aVvalue
p4786
aVvalues
p4787
aVvanished
p4788
aVvariable
p4789
aVvariables
p4790
aVvariation
p4791
aVvariations
p4792
aVvaried
p4793
aVvaries
p4794
aVvariety
p4795
aVvarious
p4796
aVvarlaam
p4797
aVvarying
p4798
aVvases
p4799
aVvector
p4800
aVvectors
p4801
aVvegetable
p4802
aVvegetables
p4803
aVvehicle
p4804
aVvehicles
p4805
aVvelocity
p4806
aVventure
p4807
aVvenus
p4808
aVverbal
p4809
aVvermejo
p4810
aVvermont
p4811
aVverse
p4812
aVversion
p4813
aVversus
p4814
aVvertex
p4815
aVvertical
p4816
aVvessel
p4817
aVveteran
p4818
aVveterans
p4819
aVvictims
p4820
aVvictor
p4821
aVvictory
p4822
aVvienna
p4823
aVvietnamese
p4824
aVviewed
p4825
aVviewing
p4826
aVviews
p4827
aVvigor
p4828
aVvigorous
p4829
aVvigorously
p4830
aVvillage
p4831
aVviolence
p4832
aVviolent
p4833
aVviolin
p4834
aVvirginia
p4835
aVvirtually
p4836
aVvirtue
p4837
aVvirus
p4838
aVviscosity
p4839
aVvisible
p4840
aVvision
p4841
aVvisit
p4842
aVvisited
p4843
aVvisiting
p4844
aVvisitors
p4845
aVvisits
p4846
aVvisual
p4847
aVvital
p4848
aVvitality
p4849
aVvivid
p4850
aVvocal
p4851
aVvocational
p4852
aVvoice
p4853
aVvoices
p4854
aVvolatile
p4855
aVvoltage
p4856
aVvolume
p4857
aVvolumes
p4858
aVvoluntary
p4859
aVvolunteers
p4860
aVvoted
p4861
aVvoters
p4862
aVvotes
p4863
aVvoting
p4864
aVvowel
p4865
aVvulnerable
p4866
aVw-region
p4867
aVwage-price
p4868
aVwages
p4869
aVwagner
p4870
aVwagner-peyser
p4871
aVwaiting
p4872
aVwalked
p4873
aVwalker
p4874
aVwalking
p4875
aVwallpaper
p4876
aVwalls
p4877
aVwalter
p4878
aVwanted
p4879
aVwanting
p4880
aVwants
p4881
aVwarfare
p4882
aVwarmth
p4883
aVwarned
p4884
aVwarning
p4885
aVwarrant
p4886
aVwarren
p4887
aVwarwick
p4888
aVwashed
p4889
aVwashing
p4890
aVwashington
p4891
aVwasn't
p4892
aVwaste
p4893
aVwatch
p4894
aVwatched
p4895
aVwatching
p4896
aVwater
p4897
aVwaters
p4898
aVwaved
p4899
aVweakness
p4900
aVweapon
p4901
aVweapons
p4902
aVwearing
p4903
aVweather
p4904
aVwednesday
p4905
aVweekly
p4906
aVweeks
p4907
aVweighed
p4908
aVweight
p4909
aVweights
p4910
aVwelcome
p4911
aVwelfare
p4912
aVwell-known
p4913
aVwestern
p4914
aVwhat's
p4915
aVwhatever
p4916
aVwheel
p4917
aVwhenever
p4918
aVwhere
p4919
aVwhereas
p4920
aVwhereby
p4921
aVwhether
p4922
aVwhich
p4923
aVwhile
p4924
aVwhipple
p4925
aVwhite
p4926
aVwhites
p4927
aVwhole
p4928
aVwholly
p4929
aVwhose
p4930
aVwidely
p4931
aVwider
p4932
aVwidespread
p4933
aVwidow
p4934
aVwidth
p4935
aVwiley
p4936
aVwilliam
p4937
aVwilling
p4938
aVwillingness
p4939
aVwillow
p4940
aVwilson
p4941
aVwindow
p4942
aVwinds
p4943
aVwings
p4944
aVwinter
p4945
aVwisdom
p4946
aVwisely
p4947
aVwishes
p4948
aVwithin
p4949
aVwithout
p4950
aVwives
p4951
aVwollman
p4952
aVwoman
p4953
aVwomen
p4954
aVwon't
p4955
aVwonder
p4956
aVwondered
p4957
aVwonderful
p4958
aVwooden
p4959
aVwords
p4960
aVworked
p4961
aVworker
p4962
aVworkers
p4963
aVworking
p4964
aVworks
p4965
aVworld
p4966
aVworld's
p4967
aVworse
p4968
aVworship
p4969
aVworth
p4970
aVwould
p4971
aVwouldn't
p4972
aVwound
p4973
aVwoven
p4974
aVwrite
p4975
aVwriter
p4976
aVwriters
p4977
aVwrites
p4978
aVwriting
p4979
aVwritten
p4980
aVwrong
p4981
aVwrote
p4982
aVx-ray
p4983
aVxydis
p4984
aVxylem
p4985
aVyalta
p4986
aVyarrow
p4987
aVyear's
p4988
aVyears
p4989
aVyellow
p4990
aVyesterday
p4991
aVyield
p4992
aVyielded
p4993
aVyokuts
p4994
aVyou're
p4995
aVyou've
p4996
aVyoung
p4997
aVyoungsters
p4998
aVyours
p4999
aVyouth
p5000
a.